MPASM  5.47                   16F628ATMPO.ASM   1-25-2013  19:54:22         PAGE  1


LOC  OBJECT CODE     LINE SOURCE TEXT
  VALUE

                      00001 ;**********************************************************************
                      00002 ;   This file is a basic code template for object module code         *
                      00003 ;   generation on the PIC16F628A. This file contains the              *
                      00004 ;   basic code building blocks to build upon.                         *
                      00005 ;                                                                     *
                      00006 ;   Refer to the MPASM User's Guide for additional information on     *
                      00007 ;   features of the assembler and linker (Document DS33014).          *
                      00008 ;                                                                     *
                      00009 ;   Refer to the respective PIC data sheet for additional             *
                      00010 ;   information on the instruction set.                               *
                      00011 ;                                                                     *
                      00012 ;**********************************************************************
                      00013 ;                                                                     *
                      00014 ;    Filename:        xxx.asm                                         *
                      00015 ;    Date:                                                            *
                      00016 ;    File Version:                                                    *
                      00017 ;                                                                     *
                      00018 ;    Author:  Ing. Matej Baran                                                        *
                      00019 ;    Company:                                                         *
                      00020 ;                                                                     *
                      00021 ;                                                                     *
                      00022 ;**********************************************************************
                      00023 ;                                                                     *
                      00024 ;    Files required: P16F628A.INC                                     *
                      00025 ;                                                                     *
                      00026 ;**********************************************************************
                      00027 ;                                                                     *
                      00028 ;    Notes:                                                           *
                      00029 ;                                                                     *
                      00030 ;**********************************************************************
                      00031 
                      00032     list      p=16F628A           ; list directive to define processor
                      00033     #include <p16F628A.inc>       ; processor specific variable definitions
                      00001         LIST
                      00002 ; P16F628A.INC  Standard Header File, Version 1.10    Microchip Technology, Inc.
                      00265         LIST
                      00266 
                      00034 
                      00035     errorlevel  -302              ; suppress message 302 from list file
                      00036 
2007   1E32           00037     __CONFIG   _CP_ON & _DATA_CP_ON & _LVP_OFF & _BOREN_OFF & _MCLRE_ON & _WDT_OFF & _PWRTE_ON & _RC_OSC
                            _NOCLKOUT 
                      00038 
                      00039 ;konstanty
  00000002            00040 PIS_MEDZ                EQU             0x02 ;urcuje medzeru medzi pismenami
  00000032            00041 TRV_RIADKU              EQU             0x32 ;0x32 ;50 vykresleni riadku
  00000002            00042 TRVANIE_FRAME   EQU             0x02 ;cas medzi vykreslenim
                      00043 
                      00044 ;portA
  00000000            00045 RA0_LED1                EQU             0x00
  00000001            00046 RA1_LED2                EQU             0x01
  00000002            00047 RA2_LED3                EQU             0x02
  00000003            00048 RA3_LED4                EQU             0x03
MPASM  5.47                   16F628ATMPO.ASM   1-25-2013  19:54:22         PAGE  2


LOC  OBJECT CODE     LINE SOURCE TEXT
  VALUE

  00000004            00049 RA4_TLAC                EQU             0x04
  00000005            00050 RA5_MCLR                EQU             0x05
  00000006            00051 RA6_LED5                EQU             0x06
  00000007            00052 RA7_OSC                 EQU             0x07
                      00053 
                      00054 
                      00055 ;portB
  00000000            00056 RB0_RX                  EQU             0x00
  00000001            00057 RB1_COLOR               EQU             0x01
  00000002            00058 RB2_LED6                EQU             0x02
  00000003            00059 RB3_LED7                EQU             0x03
  00000004            00060 RB4_LED8                EQU             0x04
  00000005            00061 RB5_LED9                EQU             0x05
  00000006            00062 RB6_LED10               EQU             0x06
  00000007            00063 RB7_LED11               EQU             0x07
                      00064 
                      00065 ;stav
  00000000            00066 TMR0_TICK               EQU             0x00
  00000001            00067 NAHODA                  EQU             0x01
  00000002            00068 INIT                    EQU             0x02
  00000003            00069 SPRACUJ                 EQU             0x03
  00000004            00070 PISMENO                 EQU             0x04
  00000005            00071 MEDZERA                 EQU             0x05
  00000006            00072 ZMEN_FARBU              EQU             0x06
  00000007            00073 FARBA                   EQU             0x07
                      00074 
                      00075 ;rs232
  00000000            00076 KAL_OK                  EQU             0x00
  00000001            00077 START_KAL               EQU             0x01
  00000002            00078 MERAM_KAL               EQU             0x02
  00000003            00079 DATA_GO                 EQU             0x03
  00000004            00080 EE_WR_OK                EQU             0x04
  00000005            00081 WRITE_BUF               EQU             0x05
  00000006            00082 NEVYKRESLUJ             EQU             0x06
  00000007            00083 RAZ                             EQU             0x07
                      00084 
                      00085 ;pohyb_priz
  00000000            00086 POHYB                   EQU             0x00
  00000001            00087 ZMENA_SMERU             EQU             0x01
  00000002            00088 DALSI                   EQU             0x02
  00000003            00089 VYMENA                  EQU             0x03
  00000004            00090 MENU                    EQU             0x04
                      00091 
                      00092 ;offsety znakov
                      00093 
                      00094 ;tabulka 1
  00000000            00095 OFFSET_medzernik   EQU   0x00  ;0
  00000005            00096 OFFSET_vykr   EQU   0x05  ;5 !
  0000000A            00097 OFFSET_dvoj_apostrof    EQU   0x0A  ;10 "
  0000000F            00098 OFFSET_#   EQU   0x0F  ;15
  00000014            00099 OFFSET_dolar   EQU   0x14  ;20 $
  00000019            00100 OFFSET_percento   EQU   0x19  ;25 %
  0000001E            00101 OFFSET_and   EQU   0x1E  ;30 &
MPASM  5.47                   16F628ATMPO.ASM   1-25-2013  19:54:22         PAGE  3


LOC  OBJECT CODE     LINE SOURCE TEXT
  VALUE

  00000023            00102 OFFSET_apostrof   EQU   0x23  ;35 '
  00000028            00103 OFFSET_lz   EQU   0x28  ;40 (
  0000002D            00104 OFFSET_pz   EQU   0x2D  ;45 )
  00000032            00105 OFFSET_hviezda   EQU   0x32  ;50 *
  00000037            00106 OFFSET_plus   EQU   0x37  ;55 +
  0000003C            00107 OFFSET_ciarka   EQU   0x3C  ;60 ,
  00000041            00108 OFFSET_minus   EQU   0x41  ;65 -
  00000046            00109 OFFSET_bodka   EQU   0x46  ;70 .
  0000004B            00110 OFFSET_plomitko   EQU   0x4B  ;75 /
  00000050            00111 OFFSET_0   EQU   0x50  ;80
  00000055            00112 OFFSET_1   EQU   0x55  ;85
  0000005A            00113 OFFSET_2   EQU   0x5A  ;90
  0000005F            00114 OFFSET_3   EQU   0x5F  ;95
  00000064            00115 OFFSET_4   EQU   0x64  ;100
  00000069            00116 OFFSET_5   EQU   0x69  ;105
  0000006E            00117 OFFSET_6   EQU   0x6E  ;110
  00000073            00118 OFFSET_7   EQU   0x73  ;115
  00000078            00119 OFFSET_8   EQU   0x78  ;120
  0000007D            00120 OFFSET_9   EQU   0x7D  ;125
  00000082            00121 OFFSET_dvojbodka   EQU   0x82  ;130 :
  00000087            00122 OFFSET_bciarka   EQU   0x87  ;135 ;
  0000008C            00123 OFFSET_mensi   EQU   0x8C  ;140 <
  00000091            00124 OFFSET_rovny   EQU   0x91  ;145 =
  00000096            00125 OFFSET_vacsi   EQU   0x96  ;150 >
  0000009B            00126 OFFSET_?   EQU   0x9B  ;155
  000000A0            00127 OFFSET_@   EQU   0xA0  ;160
  000000A5            00128 OFFSET_A   EQU   0xA5  ;165
  000000AA            00129 OFFSET_B   EQU   0xAA  ;170
  000000AF            00130 OFFSET_C   EQU   0xAF  ;175
  000000B4            00131 OFFSET_D   EQU   0xB4  ;180
  000000B9            00132 OFFSET_E   EQU   0xB9  ;185
  000000BE            00133 OFFSET_F   EQU   0xBE  ;190
  000000C3            00134 OFFSET_G   EQU   0xC3  ;195
  000000C8            00135 OFFSET_H   EQU   0xC8  ;200
  000000CD            00136 OFFSET_I   EQU   0xCD  ;205
  000000D2            00137 OFFSET_J   EQU   0xD2  ;210
  000000D7            00138 OFFSET_K   EQU   0xD7  ;215
  000000DC            00139 OFFSET_L   EQU   0xDC  ;220
  000000E1            00140 OFFSET_M   EQU   0xE1  ;225
  000000E6            00141 OFFSET_N   EQU   0xE6  ;230
  000000EB            00142 OFFSET_O   EQU   0xEB  ;235
  000000F0            00143 OFFSET_P   EQU   0xF0  ;240
  000000F5            00144 OFFSET_Q   EQU   0xF5  ;245
  000000FA            00145 OFFSET_R   EQU   0xFA  ;250
                      00146 
                      00147 ;tabulka 2
  00000000            00148 OFFSET_S   EQU   0x00  ;0
  00000005            00149 OFFSET_T   EQU   0x05  ;5
  0000000A            00150 OFFSET_U   EQU   0x0A  ;10
  0000000F            00151 OFFSET_V   EQU   0x0F  ;15
  00000014            00152 OFFSET_W   EQU   0x14  ;20
  00000019            00153 OFFSET_X   EQU   0x19  ;25
  0000001E            00154 OFFSET_Y   EQU   0x1E  ;30
MPASM  5.47                   16F628ATMPO.ASM   1-25-2013  19:54:22         PAGE  4


LOC  OBJECT CODE     LINE SOURCE TEXT
  VALUE

  00000023            00155 OFFSET_Z   EQU   0x23  ;35
  00000028            00156 OFFSET_lhz   EQU   0x28  ;40 [
  0000002D            00157 OFFSET_llomitko   EQU   0x2D  ;45 \
  00000032            00158 OFFSET_phz   EQU   0x32  ;50 ]
  00000037            00159 OFFSET_striezka   EQU   0x37  ;55 ^
  0000003C            00160 OFFSET__   EQU   0x3C  ;60
  00000041            00161 OFFSET_opdl   EQU   0x41  ;65 `
  00000046            00162 OFFSET_a   EQU   0x46  ;70
  0000004B            00163 OFFSET_b   EQU   0x4B  ;75
  00000050            00164 OFFSET_c   EQU   0x50  ;80
  00000055            00165 OFFSET_d   EQU   0x55  ;85
  0000005A            00166 OFFSET_e   EQU   0x5A  ;90
  0000005F            00167 OFFSET_f   EQU   0x5F  ;95
  00000064            00168 OFFSET_g   EQU   0x64  ;100
  00000069            00169 OFFSET_h   EQU   0x69  ;105
  0000006E            00170 OFFSET_i   EQU   0x6E  ;110
  00000073            00171 OFFSET_j   EQU   0x73  ;115
  00000078            00172 OFFSET_k   EQU   0x78  ;120
  0000007D            00173 OFFSET_l   EQU   0x7D  ;125
  00000082            00174 OFFSET_m   EQU   0x82  ;130
  00000087            00175 OFFSET_n   EQU   0x87  ;135
  0000008C            00176 OFFSET_o   EQU   0x8C  ;140
  00000091            00177 OFFSET_p   EQU   0x91  ;145
  00000096            00178 OFFSET_q   EQU   0x96  ;150
  0000009B            00179 OFFSET_r   EQU   0x9B  ;155
  000000A0            00180 OFFSET_s   EQU   0xA0  ;160
  000000A5            00181 OFFSET_t   EQU   0xA5  ;165
  000000AA            00182 OFFSET_u   EQU   0xAA  ;170
  000000AF            00183 OFFSET_v   EQU   0xAF  ;175
  000000B4            00184 OFFSET_w   EQU   0xB4  ;180
  000000B9            00185 OFFSET_x   EQU   0xB9  ;185
  000000BE            00186 OFFSET_y   EQU   0xBE  ;190
  000000C3            00187 OFFSET_z   EQU   0xC3  ;195
  000000C8            00188 OFFSET_lzlz   EQU   0xC8  ;200 {
  000000CD            00189 OFFSET_stlp   EQU   0xCD  ;205 |
  000000D2            00190 OFFSET_pzlz   EQU   0xD2  ;210 }
  000000D7            00191 OFFSET_ciarka2   EQU   0xD7  ;215 ,
  000000DC            00192 OFFSET_bodka2   EQU   0xDC  ;220 .
  000000E1            00193 OFFSET_dapostrof   EQU   0xE1  ;225 Ñ
  000000E6            00194 OFFSET_m_S   EQU   0xE6  ;230 ä
  000000EB            00195 OFFSET_m_T   EQU   0xEB  ;235 ç
  000000F0            00196 OFFSET_m_Z   EQU   0xF0  ;240 é
  000000F5            00197 OFFSET_m_s   EQU   0xF5  ;245 ö
  000000FA            00198 OFFSET_m_t   EQU   0xFA  ;250 mù
                      00199 
                      00200 ;tabulka 3
  00000000            00201 OFFSET_m_z   EQU   0x00  ;0 û
  00000005            00202 OFFSET_makcen   EQU   0x05  ;5 °
  0000000A            00203 OFFSET_paragraf   EQU   0x0A  ;10 ß
  0000000F            00204 OFFSET_stupen   EQU   0x0F  ;15 ∞
  00000014            00205 OFFSET_m_L   EQU   0x14  ;20 º
  00000019            00206 OFFSET_m_l   EQU   0x19  ;25 æ
  0000001E            00207 OFFSET_¿   EQU   0x1E  ;30
MPASM  5.47                   16F628ATMPO.ASM   1-25-2013  19:54:22         PAGE  5


LOC  OBJECT CODE     LINE SOURCE TEXT
  VALUE

  00000023            00208 OFFSET_¡   EQU   0x23  ;35
  00000028            00209 OFFSET_ƒ   EQU   0x28  ;40
  0000002D            00210 OFFSET_≈   EQU   0x2D  ;45
  00000032            00211 OFFSET_»   EQU   0x32  ;50
  00000037            00212 OFFSET_…   EQU   0x37  ;55
  0000003C            00213 OFFSET_Ã   EQU   0x3C  ;60
  00000041            00214 OFFSET_Õ   EQU   0x41  ;65
  00000046            00215 OFFSET_œ   EQU   0x46  ;70
  0000004B            00216 OFFSET_“   EQU   0x4B  ;75
  00000050            00217 OFFSET_”   EQU   0x50  ;80
  00000055            00218 OFFSET_‘   EQU   0x55  ;85
  0000005A            00219 OFFSET_ÿ   EQU   0x5A  ;90
  0000005F            00220 OFFSET_Ÿ   EQU   0x5F  ;95
  00000064            00221 OFFSET_⁄   EQU   0x64  ;100
  00000069            00222 OFFSET_›   EQU   0x69  ;105
  0000006E            00223 OFFSET_‡   EQU   0x6E  ;110
  00000073            00224 OFFSET_·   EQU   0x73  ;115
  00000078            00225 OFFSET_‰   EQU   0x78  ;120
  0000007D            00226 OFFSET_Â   EQU   0x7D  ;125
  00000082            00227 OFFSET_Ë   EQU   0x82  ;130
  00000087            00228 OFFSET_È   EQU   0x87  ;135
  0000008C            00229 OFFSET_Ï   EQU   0x8C  ;140
  00000091            00230 OFFSET_Ì   EQU   0x91  ;145
  00000096            00231 OFFSET_Ô   EQU   0x96  ;150
  0000009B            00232 OFFSET_Ú   EQU   0x9B  ;155
  000000A0            00233 OFFSET_Û   EQU   0xA0  ;160
  000000A5            00234 OFFSET_Ù   EQU   0xA5  ;165
  000000AA            00235 OFFSET_˜   EQU   0xAA  ;170
  000000AF            00236 OFFSET_¯   EQU   0xAF  ;175
  000000B4            00237 OFFSET_˘   EQU   0xB4  ;180
  000000B9            00238 OFFSET_˙   EQU   0xB9  ;185
  000000BE            00239 OFFSET_˝   EQU   0xBE  ;190
  000000FF            00240 OFFSET_koniec   EQU             0xFF ;najnovsi 255 ;novy 195, stary 175
                      00241 
  000000FF            00242 OFFSET_medzera  EQU             0xFF
                      00243 
                      00244 
                      00245 
                      00246 
                      00247 ;***** VARIABLE DEFINITIONS (examples)
                      00248 
                      00249 ; example of using Shared Uninitialized Data Section
                      00250 INT_VAR        UDATA_SHR     
0000                  00251 w_temp         RES     1        ; variable used for context saving 
0001                  00252 status_temp    RES     1        ; variable used for context saving
                      00253 
                      00254 PREMENNE_BANK0  UDATA   0x20
0020                  00255 stav                    RES             1
0021                  00256 vykresli                RES             2
0023                  00257 znak                    RES             1
0024                  00258 eeadr_wr                RES             1
0025                  00259 eedata_wr               RES             1
0026                  00260 rs232                   RES             1
MPASM  5.47                   16F628ATMPO.ASM   1-25-2013  19:54:22         PAGE  6


LOC  OBJECT CODE     LINE SOURCE TEXT
  VALUE

0027                  00261 cyklus_int              RES             1
0028                  00262 maly_krok               RES             2
002A                  00263 velky_krok              RES             2
002C                  00264 prijaty_bajt    RES             1
002D                  00265 rc_bajt                 RES             1
002E                  00266 rc_bajt2                RES             1
002F                  00267 posun_bitov             RES             1
                      00268 ;ascii
0030                  00269 tab_pom                 RES             1
0031                  00270 tabulka                 RES             1
0032                  00271 adress_offset   RES             1
0033                  00272 offset                  RES             1
                      00273 ;buffre
0034                  00274 pocet_prij              RES             1
0035                  00275 buf_adr                 RES             1
0036                  00276 buf_data                RES             1
0037                  00277 cyklus                  RES             1
                      00278 ;find_adr               RES             1
                      00279 ;samotne vykreslovanie
0038                  00280 mody                    RES             2
003A                  00281 mody_zal                RES             2
003C                  00282 mody_vyber              RES             2
003E                  00283 mod_nahoda              RES             2
0040                  00284 mod_nah                 RES             1
0041                  00285 pismeno                 RES             1
0042                  00286 pis_off                 RES             1
0043                  00287 seg_posuv               RES             1
0044                  00288 segment                 RES             1
0045                  00289 trv_medz                RES             1
0046                  00290 zalomenie               RES             1
0047                  00291 trvanie_r               RES             1
0048                  00292 trv_riad                RES             1
0049                  00293 pohyb_priz              RES             1
004A                  00294 pohyb_poz               RES             1
004B                  00295 pohyb_stav              RES             1
004C                  00296 port_A                  RES             1
004D                  00297 port_B                  RES             1
004E                  00298 random                  RES             1
004F                  00299 pociatocne              RES             1
                      00300 ;zamkni                 RES             1
                      00301 
                      00302 BUFF_BANK1              UDATA   0xA0
00A0                  00303 buffer1                 RES             0x50
                      00304 
                      00305 BUFF_BANK2              UDATA   0x120
0120                  00306 buffer2                 RES             0x30
                      00307 
                      00308 ;**********************************************************************
                      00309 RESET_VECTOR    CODE   0x0000     ; processor reset vector
0000   2???           00310         GOTO    Start             ; go to beginning of program
                      00311     
                      00312 INT_VECTOR    CODE    0x0004      ; interrupt vector location
                      00313 
MPASM  5.47                   16F628ATMPO.ASM   1-25-2013  19:54:22         PAGE  7


LOC  OBJECT CODE     LINE SOURCE TEXT
  VALUE

0004                  00314 INTERRUPT
                      00315 
0004   00??           00316         MOVWF   w_temp            ; save off current W register contents
0005   0803           00317         MOVF    STATUS,w          ; move status register into W register
0006   00??           00318         MOVWF   status_temp       ; save off contents of STATUS register
                      00319 
0007   180C           00320                 BTFSC   PIR1, TMR1IF
0008   2???           00321                 CALL    Prerusenie_TMR1
                      00322 
0009   1E0B           00323                 BTFSS   INTCON, INTE
000A   2???           00324                 GOTO    Preskoc_RB0_INT
000B   188B           00325                 BTFSC   INTCON, INTF
000C   2???           00326                 CALL    Prerusenie_RB0
000D                  00327 Preskoc_RB0_INT
                      00328 
000D   1B8C           00329                 BTFSC   PIR1, EEIF
000E   2???           00330                 CALL    Prerusenie_EEPROM
                      00331 
000F   190B           00332                 BTFSC   INTCON, T0IF
0010   2???           00333                 CALL    Prerusenie_TMR0
                      00334 
0011   08??           00335         MOVF    status_temp,w     ; retrieve copy of STATUS register
0012   0083           00336         MOVWF   STATUS            ; restore pre-isr STATUS register contents
0013   0E??           00337         SWAPF   w_temp,f
0014   0E??           00338         SWAPF   w_temp,w          ; restore pre-isr W register contents
0015   0009           00339         RETFIE                    ; return from interrupt
                      00340 
                      00341 MAIN_PROG     CODE
                      00342 
0000                  00343 Start
0000   1283 1303      00344                 BANKSEL PORTA
0002   0185           00345                 CLRF    PORTA
0003   0186           00346                 CLRF    PORTB
                      00347                 
0004   3007           00348                 MOVLW   0x07
0005   009F           00349                 MOVWF   CMCON
                      00350 
0006   1683 1303      00351                 BANKSEL OPTION_REG
0008   30C7           00352                 MOVLW   0xC7
0009   0081           00353                 MOVWF   OPTION_REG
                      00354 
000A   30F0           00355                 MOVLW   0xF0
000B   008B           00356                 MOVWF   INTCON
                      00357 
000C   30B0           00358                 MOVLW   0xB0
000D   0085           00359                 MOVWF   TRISA
                      00360 
000E   3001           00361                 MOVLW   0x01
000F   0086           00362                 MOVWF   TRISB
                      00363                 
0010   3081           00364                 MOVLW   0x81
0011   008C           00365                 MOVWF   PIE1
                      00366 
MPASM  5.47                   16F628ATMPO.ASM   1-25-2013  19:54:22         PAGE  8


LOC  OBJECT CODE     LINE SOURCE TEXT
  VALUE

0012   1283 1303      00367                 BANKSEL PIR1
0014   018C           00368                 CLRF    PIR1
                      00369 
                      00370                 ;CLRF   zamkni
0015   01??           00371                 CLRF    vykresli
0016   01??           00372                 CLRF    vykresli+1
0017   1780           00373                 BSF             stav, FARBA
                      00374 
0018   01??           00375                 CLRF    rs232
0019   01??           00376                 CLRF    stav
001A   01??           00377                 CLRF    pocet_prij
001B   01??           00378                 CLRF    pohyb_priz
                      00379 
001C   30B4           00380                 MOVLW   0xB4
001D   00??           00381                 MOVWF   random
                      00382 
001E   3001           00383                 MOVLW   0x01
001F   00??           00384                 MOVWF   pohyb_poz
                      00385 
0020   3002           00386                 MOVLW   0x02
0021   00??           00387                 MOVWF   zalomenie
0022   00??           00388                 MOVWF   pismeno
                      00389 
                      00390                 ;MOVLW  TRV_RIADKU
0023   3000           00391                 MOVLW   0x00
0024   2???           00392                 CALL    Precitaj_znak_z_EEPROM  
0025   08??           00393                 MOVF    znak, W 
0026   00??           00394                 MOVWF   trvanie_r
0027   00??           00395                 MOVWF   trv_riad
                      00396 
0028   3001           00397                 MOVLW   0x01
0029   2???           00398                 CALL    Precitaj_znak_z_EEPROM
002A   08??           00399                 MOVF    znak, W
002B   00??           00400                 MOVWF   pociatocne
                      00401 
002C   3002           00402                 MOVLW   PIS_MEDZ
002D   00??           00403                 MOVWF   trv_medz
                      00404 
002E   3001           00405                 MOVLW   0x01
002F   00??           00406                 MOVWF   mod_nah
0030   00??           00407                 MOVWF   mody
0031   00??           00408                 MOVWF   mod_nahoda
0032   00??           00409                 MOVWF   mody_vyber
0033   01??           00410                 CLRF    mody+1
0034   01??           00411                 CLRF    mod_nahoda+1
0035   01??           00412                 CLRF    mody_vyber+1
                      00413 
0036   08??           00414                 MOVF    pociatocne, W
0037   3A00           00415                 XORLW   0x00
0038   1903           00416                 BTFSC   STATUS, Z
0039   2???           00417                 GOTO    Preskoc_pociatocne_nastavenie
003A                  00418 Posuvaj_mod
003A   1003           00419                 BCF             STATUS, C
MPASM  5.47                   16F628ATMPO.ASM   1-25-2013  19:54:22         PAGE  9


LOC  OBJECT CODE     LINE SOURCE TEXT
  VALUE

003B   0D??           00420                 RLF             mody, F
003C   0D??           00421                 RLF             mody+1, F
003D   0B??           00422                 DECFSZ  pociatocne, F
003E   2???           00423                 GOTO    Posuvaj_mod
003F                  00424 Preskoc_pociatocne_nastavenie
                      00425 
003F   3000           00426                 MOVLW   0x00
0040   0090           00427                 MOVWF   T1CON
0041   018E           00428                 CLRF    TMR1L
0042   018F           00429                 CLRF    TMR1H
                      00430 
                      00431                 ;pre testovanie
                      00432                 ;MOVLW  0x01
                      00433                 ;MOVWF  vykresli
                      00434                 ;CALL   Vykresli_LED
                      00435 
0043                  00436 Nekonecna_slucka
                      00437                 ;test na prekopirovanie dat 
                      00438                 ;z buffra do EEPROM
0043   ???? ????      00439                 BANKSEL rs232
0045   1E80           00440                 BTFSS   rs232, WRITE_BUF
0046   2???           00441                 GOTO    Preskoc_prekopirovanie_buffra_do_EEPROM
0047   1683 1303      00442                 BANKSEL EECON1
0049   189C           00443                 BTFSC   EECON1, WR
004A   2???           00444                 GOTO    Preskoc_prekopirovanie_buffra_do_EEPROM
004B   2???           00445                 CALL    Prekopiruj_z_buffra_do_EEPROM
004C   3001           00446                 MOVLW   0x01
004D   00??           00447                 MOVWF   vykresli
004E   3004           00448                 MOVLW   0x04
004F   00??           00449                 MOVWF   vykresli+1
0050   1780           00450                 BSF             stav, FARBA
0051   2???           00451                 CALL    Vykresli_LED
0052   1300           00452                 BCF             rs232, NEVYKRESLUJ
0053                  00453 Cakaj_na_reset
0053   2???           00454                 GOTO    Cakaj_na_reset
Warning[208]: Label truncated at 32 characters. (Preskoc_prekopirovanie_buffra_do_EEPROM)
0054                  00455 Preskoc_prekopirovanie_buffra_do_EEPROM
                      00456 
0054   ???? ????      00457                 BANKSEL stav
0056   1D80           00458                 BTFSS   stav, SPRACUJ
0057   2???           00459                 GOTO    Preskoc_spracovanie_rx_bajtu
0058   08??           00460                 MOVF    rc_bajt2, W
0059   2???           00461                 CALL    Spracuj_prijaty_bajt
005A   1180           00462                 BCF             stav, SPRACUJ
005B                  00463 Preskoc_spracovanie_rx_bajtu
                      00464 
005B   1F80           00465                 BTFSS   rs232, RAZ
005C   2???           00466                 GOTO    Preskoc_zhasnutie_LED
005D   1380           00467                 BCF             rs232, RAZ
005E   01??           00468                 CLRF    vykresli+1
005F   3002           00469                 MOVLW   0x02
0060   00??           00470                 MOVWF   vykresli
0061   1380           00471                 BCF             stav, FARBA
MPASM  5.47                   16F628ATMPO.ASM   1-25-2013  19:54:22         PAGE 10


LOC  OBJECT CODE     LINE SOURCE TEXT
  VALUE

0062   2???           00472                 CALL    Vykresli_LED
0063                  00473 Preskoc_zhasnutie_LED
                      00474 
0063   1B00           00475                 BTFSC   rs232, NEVYKRESLUJ
0064   2???           00476                 GOTO    Preskoc_vykreslenie
                      00477 
                      00478                 ;tlacitko na zmenu modu 
                      00479                 ;tlacitko na uspanie
                      00480                 ;BANKSEL zamkni
                      00481                 ;BTFSC  zamkni, 0x00
                      00482                 ;GOTO   Preskoc_tlacitko
0065   1283 1303      00483                 BANKSEL PORTA
0067   1A05           00484                 BTFSC   PORTA, RA4_TLAC
0068   2???           00485                 GOTO    Preskoc_tlacitko
0069   1A00           00486                 BTFSC   pohyb_priz, MENU
006A   2???           00487                 GOTO    Preskoc_inicializaciu_menu
006B   3001           00488                 MOVLW   0x01
006C   00??           00489                 MOVWF   mody
006D   00??           00490                 MOVWF   vykresli
006E   01??           00491                 CLRF    mody+1
006F   01??           00492                 CLRF    vykresli+1
0070   1780           00493                 BSF             stav, FARBA
0071   2???           00494                 CALL    Vykresli_LED
0072   2???           00495                 GOTO    Cakanie_TMR0
0073                  00496 Preskoc_inicializaciu_menu
0073   08??           00497                 MOVF    mody, W
0074   00??           00498                 MOVWF   vykresli
0075   08??           00499                 MOVF    mody+1, W
0076   00??           00500                 MOVWF   vykresli+1
0077   1003           00501                 BCF             STATUS, C
0078   0D??           00502                 RLF             vykresli, F
0079   0D??           00503                 RLF             vykresli+1, F
007A   1886           00504                 BTFSC   PORTB, RB1_COLOR
007B   1380           00505                 BCF             stav, FARBA
007C   1C86           00506                 BTFSS   PORTB, RB1_COLOR
007D   1780           00507                 BSF             stav, FARBA
007E   2???           00508                 CALL    Vykresli_LED
007F                  00509 Cakanie_TMR0
007F   3050           00510                 MOVLW   0x50
0080   0081           00511                 MOVWF   TMR0
0081   1000           00512                 BCF             stav, TMR0_TICK
0082                  00513 Cakaj_na_TMR0
0082   1C00           00514                 BTFSS   stav, TMR0_TICK
0083   2???           00515                 GOTO    Cakaj_na_TMR0
0084                  00516 Pockaj_na_pustenie_tlacitka
                      00517                 ;BTFSC  zamkni, 0x00
                      00518                 ;GOTO   Preskoc_tlacitko
0084   1E05           00519                 BTFSS   PORTA, RA4_TLAC
0085   2???           00520                 GOTO    Pockaj_na_pustenie_tlacitka
0086   1A00           00521                 BTFSC   pohyb_priz, MENU
0087   2???           00522                 GOTO    Preskoc_prvykrat
0088   1600           00523                 BSF             pohyb_priz, MENU
0089   2???           00524                 GOTO    Preskoc_tlacitko
MPASM  5.47                   16F628ATMPO.ASM   1-25-2013  19:54:22         PAGE 11


LOC  OBJECT CODE     LINE SOURCE TEXT
  VALUE

008A                  00525 Preskoc_prvykrat
008A   1003           00526                 BCF             STATUS, C
008B   0D??           00527                 RLF             mody, F
008C   0D??           00528                 RLF             mody+1, F
008D   1D80           00529                 BTFSS   mody+1, 0x03
008E   2???           00530                 GOTO    Preskoc_tlacitko
008F   01??           00531                 CLRF    vykresli
0090   01??           00532                 CLRF    vykresli+1
0091   1380           00533                 BCF             stav, FARBA
0092   2???           00534                 CALL    Vykresli_LED
0093   1683 1303      00535                 BANKSEL TRISB
0095   1486           00536                 BSF             TRISB, RB1_COLOR
0096   ???? ????      00537                 BANKSEL stav
0098   0063           00538                 SLEEP
0099                  00539 Preskoc_tlacitko
                      00540 
0099   1D00           00541                 BTFSS   mody+1, 2
009A   2???           00542                 GOTO    Preskoc_nahodu_pre_10           
009B                  00543 Zamiesaj_mod
009B   1003           00544                 BCF             STATUS, C
009C   0D??           00545                 RLF             mod_nahoda, F
009D   0D??           00546                 RLF             mod_nahoda+1, F
009E   1D00           00547                 BTFSS   mod_nahoda+1, 2
009F   2???           00548                 GOTO    Preskoc_init_nahoda_mod
00A0   3001           00549                 MOVLW   0x01
00A1   00??           00550                 MOVWF   mod_nahoda
00A2   01??           00551                 CLRF    mod_nahoda+1
00A3                  00552 Preskoc_init_nahoda_mod
00A3   0B??           00553                 DECFSZ  mod_nah, F
00A4   2???           00554                 GOTO    Zamiesaj_mod
00A5   3001           00555                 MOVLW   0x01
00A6   00??           00556                 MOVWF   mod_nah
                      00557                 ;test na prekrocenie mod_nahoda
00A7   08??           00558                 MOVF    mod_nahoda, W
00A8   3C80           00559                 SUBLW   0x80 ;ak je vacsie ako 128
00A9   1803           00560                 BTFSC   STATUS, C
00AA   2???           00561                 GOTO    Preskoc_napravu_1
00AB   3001           00562                 MOVLW   0x01
00AC   00??           00563                 MOVWF   mod_nahoda
00AD                  00564 Preskoc_napravu_1
                      00565                 ;test na prekrocenie mod_nahoda+1
00AD   08??           00566                 MOVF    mod_nahoda+1, W
00AE   3C03           00567                 SUBLW   0x03 ;ak je vacsie ako 3
00AF   1803           00568                 BTFSC   STATUS, C
00B0   2???           00569                 GOTO    Preskoc_napravu_2
00B1   01??           00570                 CLRF    mod_nahoda+1
00B2                  00571 Preskoc_napravu_2
00B2                  00572 Preskoc_nahodu_pre_10
                      00573                 
                      00574 
00B2   1C00           00575                 BTFSS   stav, TMR0_TICK
00B3   2???           00576                 GOTO    Preskoc_vykreslenie
00B4   3002           00577                 MOVLW   TRVANIE_FRAME
MPASM  5.47                   16F628ATMPO.ASM   1-25-2013  19:54:22         PAGE 12


LOC  OBJECT CODE     LINE SOURCE TEXT
  VALUE

00B5   0081           00578                 MOVWF   TMR0
00B6   0981           00579                 COMF    TMR0, F
00B7   1000           00580                 BCF             stav, TMR0_TICK
00B8   2???           00581                 CALL    Nahraj_segment
00B9   2???           00582                 CALL    Vykresli_LED
00BA                  00583 Preskoc_vykreslenie
                      00584         
Warning[203]: Found opcode in column 1. (GOTO)
00BA   2???           00585 GOTO     Nekonecna_slucka  
                      00586 
                      00587 
00BB                  00588 Nahraj_segment
                      00589 ;zisti ci je nahodny vyber zapnuty
00BB   1D00           00590                 BTFSS   mody+1, 2
00BC   2???           00591                 GOTO    Preskoc_nahodny_vyber_modu_init
00BD   08??           00592                 MOVF    mody, W
00BE   00??           00593                 MOVWF   mody_zal
00BF   08??           00594                 MOVF    mody+1, W
00C0   00??           00595                 MOVWF   mody_zal+1
00C1   08??           00596                 MOVF    mody_vyber, W
00C2   00??           00597                 MOVWF   mody
00C3   08??           00598                 MOVF    mody_vyber+1, W
00C4   00??           00599                 MOVWF   mody+1
00C5   1580           00600                 BSF             pohyb_priz, VYMENA
00C6   1D00           00601                 BTFSS   pohyb_priz, DALSI
00C7   2???           00602                 GOTO    Preskoc_nahodny_vyber_modu_init
00C8   1100           00603                 BCF             pohyb_priz, DALSI
00C9   08??           00604                 MOVF    mod_nahoda, W
00CA   02??           00605                 SUBWF   mody_vyber, W
00CB   1803           00606                 BTFSC   STATUS, C
00CC   08??           00607                 MOVF    mod_nahoda+1, W
00CD   1C03           00608                 BTFSS   STATUS, C
00CE   0A??           00609                 INCF    mod_nahoda+1, W
00CF   02??           00610                 SUBWF   mody_vyber+1, W
00D0   1D03           00611                 BTFSS   STATUS, Z
00D1   2???           00612                 GOTO    Preskoc_iny_vyber
00D2   1003           00613                 BCF             STATUS, C
00D3   0C??           00614                 RRF             mod_nahoda+1, F
00D4   0C??           00615                 RRF             mod_nahoda, F
00D5   1C03           00616                 BTFSS   STATUS, C
00D6   2???           00617                 GOTO    Preskoc_iny_vyber
00D7   3002           00618                 MOVLW   0x02
00D8   00??           00619                 MOVWF   mod_nahoda
00D9   01??           00620                 CLRF    mod_nahoda+1
00DA                  00621 Preskoc_iny_vyber
00DA   08??           00622                 MOVF    mod_nahoda, W
00DB   00??           00623                 MOVWF   mody_vyber
00DC   08??           00624                 MOVF    mod_nahoda+1, W
00DD   00??           00625                 MOVWF   mody_vyber+1
00DE                  00626 Preskoc_nahodny_vyber_modu_init
                      00627 ;zisti ci nasleduje medzera medzi pismenami
00DE   1E80           00628                 BTFSS   stav, MEDZERA
00DF   2???           00629                 GOTO    Preskoc_medzeru
MPASM  5.47                   16F628ATMPO.ASM   1-25-2013  19:54:22         PAGE 13


LOC  OBJECT CODE     LINE SOURCE TEXT
  VALUE

00E0   01??           00630                 CLRF    vykresli
00E1   01??           00631                 CLRF    vykresli+1
00E2   0B??           00632                 DECFSZ  trv_medz, F
00E3   2???           00633                 GOTO    Koniec_vyberu
00E4   1280           00634                 BCF             stav, MEDZERA
00E5   1200           00635                 BCF             stav, PISMENO
00E6   2???           00636                 GOTO    Koniec_vyberu
00E7                  00637 Preskoc_medzeru
                      00638 ;zisti ci bolo vybrane pismeno
00E7   1A00           00639                 BTFSC   stav, PISMENO
00E8   2???           00640                 GOTO    Preskoc_vyber_pismena
                      00641 
00E9   08??           00642                 MOVF    pismeno, W
00EA   2???           00643                 CALL    Precitaj_znak_z_EEPROM
                      00644 
00EB   08??           00645                 MOVF    znak, W
00EC   3A20           00646                 XORLW   0x20 ;32 - medzernik
00ED   1D03           00647                 BTFSS   STATUS, Z
00EE   2???           00648                 GOTO    Preskoc_mod0_medzera
                      00649 ;mod 0 - zmen farbu ak narazis na medzeru - kazde slovo
00EF   1800           00650                 BTFSC   mody, 0
00F0   1700           00651                 BSF             stav, ZMEN_FARBU
                      00652 ;mod 9 - zmen farbu ak narazis na medzeru - kazde slovo
00F1   1880           00653                 BTFSC   mody+1, 1
00F2   1700           00654                 BSF             stav, ZMEN_FARBU
00F3   2???           00655                 GOTO    Preskoc_mod_6_pre_medzeru
00F4                  00656 Preskoc_mod0_medzera
                      00657 ;mod 6 - pohyb pismenok hore - dole
00F4   1B00           00658                 BTFSC   mody, 6
00F5   1400           00659                 BSF             pohyb_priz, POHYB
                      00660 ;mod 0 - pohyb pismenok hore - dole
00F6   1800           00661                 BTFSC   mody, 0
00F7   1400           00662                 BSF             pohyb_priz, POHYB
                      00663 ;mod 8 - zapne nahodny vyber farby pre kazde pismeno
00F8   1800           00664                 BTFSC   mody+1, 0
00F9   1480           00665                 BSF             stav, NAHODA
                      00666 ;mod 1 - zmen farbu kazde pismeno
00FA   1880           00667                 BTFSC   mody, 1
00FB   1700           00668                 BSF             stav, ZMEN_FARBU
00FC                  00669 Preskoc_mod_6_pre_medzeru
                      00670 
00FC   08??           00671                 MOVF    znak, W
00FD   3AFF           00672                 XORLW   0xFF
00FE   1D03           00673                 BTFSS   STATUS, Z
00FF   2???           00674                 GOTO    Preskoc_riesenie_FF_znaku
0100   0B??           00675                 DECFSZ  trvanie_r, F
0101   2???           00676                 GOTO    Preskoc_skok_na_dalsi_riadok_FF
0102   08??           00677                 MOVF    trv_riad, W     
0103   00??           00678                 MOVWF   trvanie_r
0104   3002           00679                 MOVLW   0x02
0105   00??           00680                 MOVWF   zalomenie
                      00681 ;povoli nahodne vybranie modu
0106   1500           00682                 BSF             pohyb_priz, DALSI
MPASM  5.47                   16F628ATMPO.ASM   1-25-2013  19:54:22         PAGE 14


LOC  OBJECT CODE     LINE SOURCE TEXT
  VALUE

                      00683 ;mod 5 - zmen farbu ak skocis na zaciatok
0107   1A80           00684                 BTFSC   mody, 5
0108   1700           00685                 BSF             stav, ZMEN_FARBU
                      00686 ;mod 6 - zmen farbu ak skocis na zaciatok
0109   1B00           00687                 BTFSC   mody, 6
010A   1700           00688                 BSF             stav, ZMEN_FARBU
010B                  00689 Preskoc_skok_na_dalsi_riadok_FF
010B   08??           00690                 MOVF    zalomenie, W
010C   00??           00691                 MOVWF   pismeno
                      00692 ;mod 0 - zmen farbu ak skocis na zaciatok
010D   1800           00693                 BTFSC   mody, 0 
010E   1700           00694                 BSF             stav, ZMEN_FARBU
                      00695 ;mod 9 - zmen farbu ak skocis na zaciatok
010F   1880           00696                 BTFSC   mody+1, 1
0110   1700           00697                 BSF             stav, ZMEN_FARBU
0111   2???           00698                 GOTO    Preskoc_priratavanie
0112                  00699 Preskoc_riesenie_FF_znaku
                      00700 
0112   08??           00701                 MOVF    znak, W
0113   3A0D           00702                 XORLW   0x0D ;13
0114   1D03           00703                 BTFSS   STATUS, Z
0115   2???           00704                 GOTO    Preskoc_riesenie_0D_znaku
0116   0B??           00705                 DECFSZ  trvanie_r, F
0117   2???           00706                 GOTO    Preskoc_skok_na_dalsi_riadok_0D
0118   08??           00707                 MOVF    trv_riad, W     
0119   00??           00708                 MOVWF   trvanie_r
011A   0A??           00709                 INCF    pismeno, W
011B   00??           00710                 MOVWF   zalomenie
                      00711 ;povoli nahodne vybranie modu
011C   1500           00712                 BSF             pohyb_priz, DALSI
                      00713 ;mod 5 - zmen farbu kazdy novy riadok
011D   1A80           00714                 BTFSC   mody, 5
011E   1700           00715                 BSF             stav, ZMEN_FARBU
                      00716 ;mod 6 - zmen farbu kazdy novy riadok
011F   1B00           00717                 BTFSC   mody, 6
0120   1700           00718                 BSF             stav, ZMEN_FARBU
0121                  00719 Preskoc_skok_na_dalsi_riadok_0D
0121   08??           00720                 MOVF    zalomenie, W
0122   00??           00721                 MOVWF   pismeno
                      00722 ;mod 0 - zmen farbu kazdy novy riadok
0123   1800           00723                 BTFSC   mody, 0 
0124   1700           00724                 BSF             stav, ZMEN_FARBU
                      00725 ;mod 9 - zmen farbu kazdy novy riadok
0125   1880           00726                 BTFSC   mody+1, 1
0126   1700           00727                 BSF             stav, ZMEN_FARBU
0127   2???           00728                 GOTO    Preskoc_priratavanie
0128                  00729 Preskoc_riesenie_0D_znaku
                      00730 
0128   0A??           00731                 INCF    pismeno, F
0129   08??           00732                 MOVF    pismeno, W
012A   3A80           00733                 XORLW   0x80 ;128
012B   1D03           00734                 BTFSS   STATUS, Z
012C   2???           00735                 GOTO    Preskoc_priratavanie
MPASM  5.47                   16F628ATMPO.ASM   1-25-2013  19:54:22         PAGE 15


LOC  OBJECT CODE     LINE SOURCE TEXT
  VALUE

012D   08??           00736                 MOVF    zalomenie, W
012E   00??           00737                 MOVWF   pismeno
012F                  00738 Preskoc_priratavanie
                      00739 
012F   08??           00740                 MOVF    znak, W
0130   2???           00741                 CALL    Prevod_ASCII_offset
0131   00??           00742                 MOVWF   pis_off
0132   1600           00743                 BSF             stav, PISMENO
0133   01??           00744                 CLRF    seg_posuv
0134                  00745 Preskoc_vyber_pismena
                      00746 
0134   08??           00747                 MOVF    seg_posuv, W
0135   07??           00748                 ADDWF   pis_off, W              
0136   2???           00749                 CALL    Vyber_z_tabulky_segment
0137   00??           00750                 MOVWF   segment
0138   0A??           00751                 INCF    seg_posuv, F
0139   08??           00752                 MOVF    seg_posuv, W
013A   3A05           00753                 XORLW   0x05
013B   1D03           00754                 BTFSS   STATUS, Z
013C   2???           00755                 GOTO    Preskoc_priznak_medzera
013D   1680           00756                 BSF             stav, MEDZERA
013E   3002           00757                 MOVLW   PIS_MEDZ
013F   00??           00758                 MOVWF   trv_medz
0140   01??           00759                 CLRF    seg_posuv
0141                  00760 Preskoc_priznak_medzera
                      00761 ;mod 2 - zmen farbu kazdy segment
0141   1900           00762                 BTFSC   mody, 2
0142   1700           00763                 BSF             stav, ZMEN_FARBU
                      00764 
                      00765 ;priznak zmeny farby
0143   1F00           00766                 BTFSS   stav, ZMEN_FARBU
0144   2???           00767                 GOTO    Preskoc_zmenu_farby
0145   1300           00768                 BCF             stav, ZMEN_FARBU
0146   1B80           00769                 BTFSC   stav, FARBA
0147   2???           00770                 GOTO    Zmen_na_cervenu
0148                  00771 Zmen_na_zelenu_mod1
0148   1780           00772                 BSF             stav, FARBA ;zelena
0149   2???           00773                 GOTO    Preskoc_zmenu_farby
014A                  00774 Zmen_na_cervenu
014A   1380           00775                 BCF             stav, FARBA ;cervena            
014B                  00776 Preskoc_zmenu_farby
                      00777 
                      00778 ;mod 3 - zmen farbu iba na cervenu
014B   1980           00779                 BTFSC   mody, 3
014C   1380           00780                 BCF             stav, FARBA ;cervena
                      00781 
                      00782 ;mod 4 - zmen farbu iba na zelenu
014D   1A00           00783                 BTFSC   mody, 4
014E   1780           00784                 BSF             stav, FARBA ;zelena
                      00785 
                      00786 ;mod 7 - zapne nahodny vyber farby pre segment
014F   1B80           00787                 BTFSC   mody, 7
0150   1480           00788                 BSF             stav, NAHODA
MPASM  5.47                   16F628ATMPO.ASM   1-25-2013  19:54:22         PAGE 16


LOC  OBJECT CODE     LINE SOURCE TEXT
  VALUE

                      00789 
0151   1C80           00790                 BTFSS   stav, NAHODA
0152   2???           00791                 GOTO    Preskoc_random_farba
0153   1080           00792                 BCF             stav, NAHODA
0154   1003           00793         BCF             STATUS, C
0155   0D??           00794         RLF     random, 1
0156   0E??           00795         SWAPF   random, 0
0157   39E0           00796         ANDLW   0xE0
0158   0C??           00797         RRF     random, 1
0159   07??           00798         ADDWF   random, 0
015A   07??           00799         ADDWF   random, 0
015B   07??           00800         ADDWF   random, 0
015C   3C35           00801         SUBLW   0x35
015D   00??           00802         MOVWF   random
015E   1980           00803                 BTFSC   random, 3
015F   1780           00804                 BSF             stav, FARBA
0160   1D80           00805                 BTFSS   random, 3
0161   1380           00806                 BCF             stav, FARBA
0162                  00807 Preskoc_random_farba
                      00808 
0162   08??           00809                 MOVF    segment, W
0163   00??           00810                 MOVWF   vykresli
0164   01??           00811                 CLRF    vykresli+1
                      00812 
                      00813 ;presun segmentu na vykreslenie
                      00814 ;mod 0 - aktivuj pohyb hore - dole
0165   1800           00815                 BTFSC   mody, 0
0166   2???           00816                 GOTO    Pohyb_mod_0
                      00817 ;mod 6 - aktivuj pohyb hore - dole
0167   1F00           00818                 BTFSS   mody, 6
0168   2???           00819                 GOTO    Preskoc_pohyb
                      00820 
0169                  00821 Pohyb_mod_0
                      00822 
0169   1C00           00823                 BTFSS   pohyb_priz, POHYB
016A   2???           00824                 GOTO    Preskoc_prepnutie_smeru_C
016B   1000           00825                 BCF             pohyb_priz, POHYB
                      00826 
016C   1880           00827                 BTFSC   pohyb_priz, ZMENA_SMERU
016D   2???           00828                 GOTO    Zmen_smer_posuvu
016E   1003           00829                 BCF             STATUS, C
016F   0D??           00830                 RLF             pohyb_poz, F
0170   1E00           00831                 BTFSS   pohyb_poz, 4
0171   2???           00832                 GOTO    Preskoc_prepnutie_smeru_4
0172   3004           00833                 MOVLW   0x04
0173   00??           00834                 MOVWF   pohyb_poz
0174   1480           00835                 BSF             pohyb_priz, ZMENA_SMERU
0175                  00836 Preskoc_prepnutie_smeru_4
0175   2???           00837                 GOTO    Preskoc_prepnutie_smeru_C
0176                  00838 Zmen_smer_posuvu
0176   1003           00839                 BCF             STATUS, C
0177   0C??           00840                 RRF             pohyb_poz, F
0178   1C03           00841                 BTFSS   STATUS, C
MPASM  5.47                   16F628ATMPO.ASM   1-25-2013  19:54:22         PAGE 17


LOC  OBJECT CODE     LINE SOURCE TEXT
  VALUE

0179   2???           00842                 GOTO    Preskoc_prepnutie_smeru_C
017A   3002           00843                 MOVLW   0x02
017B   00??           00844                 MOVWF   pohyb_poz
017C   1080           00845                 BCF             pohyb_priz, ZMENA_SMERU
017D                  00846 Preskoc_prepnutie_smeru_C
                      00847 
017D   1800           00848                 BTFSC   pohyb_poz, 0
017E   2???           00849                 GOTO    Preskoc_pohyb
017F   1880           00850                 BTFSC   pohyb_poz, 1
0180   3001           00851                 MOVLW   0x01
0181   1900           00852                 BTFSC   pohyb_poz, 2
0182   3002           00853                 MOVLW   0x02
0183   1980           00854                 BTFSC   pohyb_poz, 3
0184   3003           00855                 MOVLW   0x03
0185   00??           00856                 MOVWF   pohyb_stav
                      00857 
0186                  00858 Posun_dolava_xkrat
0186   1003           00859                 BCF             STATUS, C
0187   0D??           00860                 RLF             vykresli, F
0188   0D??           00861                 RLF             vykresli+1, F
0189   0B??           00862                 DECFSZ  pohyb_stav, F
018A   2???           00863                 GOTO    Posun_dolava_xkrat
018B                  00864 Preskoc_pohyb
018B                  00865 Koniec_vyberu
                      00866 
018B   1C80           00867                 BTFSS   mody+1, 1
018C   2???           00868                 GOTO    Preskoc_mod_9
018D   1003           00869                 BCF             STATUS, C
018E   0D??           00870                 RLF             vykresli, F
018F   0D??           00871                 RLF             vykresli+1, F
0190   09??           00872                 COMF    vykresli, F
0191   09??           00873                 COMF    vykresli+1, F
0192                  00874 Preskoc_mod_9
                      00875 
                      00876 ;zisti ci je nahodny vyber zapnuty
0192   1D80           00877                 BTFSS   pohyb_priz, VYMENA
0193   2???           00878                 GOTO    Preskoc_nahodny_vyber_modu_end
0194   1180           00879                 BCF             pohyb_priz, VYMENA
0195   08??           00880                 MOVF    mody_zal, W
0196   00??           00881                 MOVWF   mody
0197   08??           00882                 MOVF    mody_zal+1, W
0198   00??           00883                 MOVWF   mody+1
0199                  00884 Preskoc_nahodny_vyber_modu_end
                      00885                                         
Warning[203]: Found opcode in column 1. (RETURN)
0199   0008           00886 RETURN
                      00887 
                      00888 
019A                  00889 Spracuj_prijaty_bajt
019A   00??           00890                 MOVWF   prijaty_bajt
019B   3AFE           00891                 XORLW   0xFE
019C   1D03           00892                 BTFSS   STATUS, Z
019D   2???           00893                 GOTO    Preskoc_inicializaciu_bajtu
MPASM  5.47                   16F628ATMPO.ASM   1-25-2013  19:54:22         PAGE 18


LOC  OBJECT CODE     LINE SOURCE TEXT
  VALUE

019E   1500           00894                 BSF             stav, INIT
019F   1280           00895                 BCF             rs232, WRITE_BUF
01A0   01??           00896                 CLRF    pocet_prij
01A1   2???           00897                 GOTO    Inicializacia_ok
01A2                  00898 Preskoc_inicializaciu_bajtu
01A2   1D00           00899                 BTFSS   stav, INIT
01A3   2???           00900                 GOTO    Zahod_bajt
01A4   08??           00901                 MOVF    prijaty_bajt, W
01A5   3AFF           00902                 XORLW   0xFF
01A6   1D03           00903                 BTFSS   STATUS, Z
01A7   2???           00904                 GOTO    Preskoc_ukoncenie_prijmu
01A8   1100           00905                 BCF             stav, INIT
01A9   1680           00906                 BSF             rs232, WRITE_BUF
01AA   2???           00907                 CALL    Zapis_do_buffra
01AB   2???           00908                 GOTO    Koniec_obsluhy_prijmu
01AC                  00909 Preskoc_ukoncenie_prijmu
01AC   2???           00910                 CALL    Zapis_do_buffra
01AD   0A??           00911                 INCF    pocet_prij, F
01AE   08??           00912                 MOVF    pocet_prij, W
01AF   3A80           00913                 XORLW   0x80 ;128
01B0   1D03           00914                 BTFSS   STATUS, Z
01B1   2???           00915                 GOTO    Koniec_obsluhy_prijmu
01B2   1100           00916                 BCF             stav, INIT
01B3   1680           00917                 BSF             rs232, WRITE_BUF
01B4                  00918 Inicializacia_ok
01B4                  00919 Zahod_bajt      
01B4                  00920 Koniec_obsluhy_prijmu   
Warning[203]: Found opcode in column 1. (RETURN)
01B4   0008           00921 RETURN
                      00922 
                      00923 
01B5                  00924 Zapis_do_buffra
01B5   ???? ????      00925                 BANKSEL pocet_prij
01B7   08??           00926                 MOVF    pocet_prij, W
01B8   3C4F           00927                 SUBLW   0x4F ;79
01B9   1C03           00928                 BTFSS   STATUS, C
01BA   2???           00929                 GOTO    Zapis_do_buffera2
01BB   ???? ????      00930                 BANKSEL buffer1
01BD   30??           00931                 MOVLW   buffer1
01BE   ???? ????      00932                 BANKSEL pocet_prij
01C0   07??           00933                 ADDWF   pocet_prij, W
01C1   0084           00934                 MOVWF   FSR
01C2   08??           00935                 MOVF    prijaty_bajt, W
01C3   ???? ????      00936                 BANKSEL buffer1
01C5   0080           00937                 MOVWF   INDF
01C6   2???           00938                 GOTO    Koniec_zapisu_do_buffera
01C7                  00939 Zapis_do_buffera2
01C7   ???? ????      00940                 BANKSEL pocet_prij
01C9   3050           00941                 MOVLW   0x50
01CA   02??           00942                 SUBWF   pocet_prij, W
01CB   1783           00943                 BSF             STATUS, IRP ;banky 2 - 3
01CC   ???? ????      00944                 BANKSEL buffer2
01CE   3E??           00945                 ADDLW   buffer2
MPASM  5.47                   16F628ATMPO.ASM   1-25-2013  19:54:22         PAGE 19


LOC  OBJECT CODE     LINE SOURCE TEXT
  VALUE

01CF   0084           00946                 MOVWF   FSR
01D0   1383           00947                 BCF             STATUS, IRP ;banky 0 - 1
01D1   ???? ????      00948                 BANKSEL prijaty_bajt
01D3   08??           00949                 MOVF    prijaty_bajt, W
01D4   1783           00950                 BSF             STATUS, IRP ;banky 2 - 3
01D5   ???? ????      00951                 BANKSEL buffer2
01D7   0080           00952                 MOVWF   INDF
01D8                  00953 Koniec_zapisu_do_buffera
01D8   1383           00954                 BCF             STATUS, IRP ;banky 0 - 1
01D9   ???? ????      00955                 BANKSEL prijaty_bajt
Warning[203]: Found opcode in column 1. (RETURN)
01DB   0008           00956 RETURN
                      00957 
                      00958 
01DC                  00959 Prekopiruj_z_buffra_do_EEPROM
01DC   ???? ????      00960                 BANKSEL rs232
01DE   1600           00961                 BSF             rs232, EE_WR_OK
01DF   01??           00962                 CLRF    buf_adr
01E0                  00963 Kopirujem_data
01E0   08??           00964                 MOVF    buf_adr, W
01E1   3C4F           00965                 SUBLW   0x4F ;79
01E2   1C03           00966                 BTFSS   STATUS, C
01E3   2???           00967                 GOTO    Citaj_z_buffera2
01E4   ???? ????      00968                 BANKSEL buffer1
01E6   30??           00969                 MOVLW   buffer1
01E7   ???? ????      00970                 BANKSEL buf_adr
01E9   07??           00971                 ADDWF   buf_adr, W
01EA   0084           00972                 MOVWF   FSR
01EB   ???? ????      00973                 BANKSEL buffer1
01ED   0800           00974                 MOVF    INDF, W
01EE   ???? ????      00975                 BANKSEL buf_data
01F0   00??           00976                 MOVWF   buf_data
01F1   2???           00977                 GOTO    Koniec_citania_z_buffera
01F2                  00978 Citaj_z_buffera2
01F2   ???? ????      00979                 BANKSEL buf_adr
01F4   3050           00980                 MOVLW   0x50
01F5   02??           00981                 SUBWF   buf_adr, W
01F6   1783           00982                 BSF             STATUS, IRP ;banky 2 - 3
01F7   ???? ????      00983                 BANKSEL buffer2
01F9   3E??           00984                 ADDLW   buffer2
01FA   0084           00985                 MOVWF   FSR
01FB   0800           00986                 MOVF    INDF, W
01FC   1383           00987                 BCF             STATUS, IRP ;banky 0 - 1
01FD   ???? ????      00988                 BANKSEL buf_data
01FF   00??           00989                 MOVWF   buf_data
0200                  00990 Koniec_citania_z_buffera
                      00991 
0200   08??           00992                 MOVF    buf_adr, W
0201   00??           00993                 MOVWF   eeadr_wr
0202   08??           00994                 MOVF    buf_data, W
0203   00??           00995                 MOVWF   eedata_wr
0204                  00996 Cakam_na_povolenie
0204   0064           00997                 CLRWDT
MPASM  5.47                   16F628ATMPO.ASM   1-25-2013  19:54:22         PAGE 20


LOC  OBJECT CODE     LINE SOURCE TEXT
  VALUE

0205   1E00           00998                 BTFSS   rs232, EE_WR_OK
0206   2???           00999                 GOTO    Cakam_na_povolenie
0207   2???           01000                 CALL    Zapis_znak_do_EEPROM
                      01001 
0208   ???? ????      01002                 BANKSEL rs232
020A   1200           01003                 BCF             rs232, EE_WR_OK
                      01004 
020B   0A??           01005                 INCF    buf_adr, F
                      01006 
020C   08??           01007                 MOVF    buf_adr, W
020D   3A80           01008                 XORLW   0x80 ;128
020E   1903           01009                 BTFSC   STATUS, Z
020F   2???           01010                 GOTO    Ukonci_kopirovanie
                      01011 
0210   08??           01012                 MOVF    buf_data, W
0211   3AFF           01013                 XORLW   0xFF
0212   1D03           01014                 BTFSS   STATUS, Z
0213   2???           01015                 GOTO    Kopirujem_data
0214                  01016 Ukonci_kopirovanie
0214   ???? ????      01017                 BANKSEL rs232
0216   1280           01018                 BCF             rs232, WRITE_BUF
0217                  01019 Cakam_na_povolenie2
0217   0064           01020                 CLRWDT
0218   1E00           01021                 BTFSS   rs232, EE_WR_OK
0219   2???           01022                 GOTO    Cakam_na_povolenie2
                      01023 
                      01024                 ;CALL   Najdi_ukoncenie 
Warning[203]: Found opcode in column 1. (RETURN)
021A   0008           01025 RETURN
                      01026 
                      01027 
                      01028 ;Najdi_ukoncenie
                      01029 ;               MOVLW   0x80
                      01030 ;               MOVWF   cyklus
                      01031 ;               CLRF    find_adr
                      01032 ;               BCF             stav, UKONC
                      01033 ;Hladam_ukoncovaci_znak
                      01034 ;               MOVF    find_adr, W
                      01035 ;               CALL    Precitaj_znak_z_EEPROM
                      01036 ;               MOVF    znak, W
                      01037 ;               XORLW   0xFF
                      01038 ;               BTFSS   STATUS, Z
                      01039 ;               GOTO    Testuj_dalsi_znak
                      01040 ;               BSF             stav, UKONC
                      01041 ;               GOTO    Koniec_hladania_ukoncenia
                      01042 ;Testuj_dalsi_znak
                      01043 ;               INCF    find_adr        
                      01044 ;               DECFSZ  cyklus, F
                      01045 ;               GOTO    Hladam_ukoncovaci_znak
                      01046 ;Koniec_hladania_ukoncenia
                      01047 ;RETURN
                      01048 
                      01049 
MPASM  5.47                   16F628ATMPO.ASM   1-25-2013  19:54:22         PAGE 21


LOC  OBJECT CODE     LINE SOURCE TEXT
  VALUE

021B                  01050 Vykresli_LED
021B   0805           01051                 MOVF    PORTA, W
021C   00??           01052                 MOVWF   port_A
021D   0806           01053                 MOVF    PORTB, W
021E   00??           01054                 MOVWF   port_B
021F   1683 1303      01055                 BANKSEL TRISB
0221   30FF           01056                 MOVLW   0xFF
0222   0086           01057                 MOVWF   TRISB
0223   307F           01058                 MOVLW   0x7F
0224   0085           01059                 MOVWF   TRISA           
0225   ???? ????      01060                 BANKSEL stav
                      01061 
0227   1B80           01062                 BTFSC   stav, FARBA
0228   1480           01063                 BSF             port_B, RB1_COLOR
0229   1F80           01064                 BTFSS   stav, FARBA
022A   1080           01065                 BCF             port_B, RB1_COLOR
                      01066 
022B   1B80           01067                 BTFSC   stav, FARBA
022C   2???           01068                 GOTO    Zelena_farba
022D                  01069 Cervena_farba
022D   30B0           01070                 MOVLW   0xB0
022E   05??           01071                 ANDWF   port_A, F
022F   3003           01072                 MOVLW   0x03
0230   05??           01073                 ANDWF   port_B, F
0231   1800           01074                 BTFSC   vykresli, 0
0232   1500           01075                 BSF             port_A, RA2_LED3 ;ok    ;RA0_LED1
0233   1880           01076                 BTFSC   vykresli, 1
0234   1580           01077                 BSF             port_A, RA3_LED4 ;ok    ;RA1_LED2
0235   1900           01078                 BTFSC   vykresli, 2
0236   1480           01079                 BSF             port_A, RA1_LED2 ;ok
0237   1980           01080                 BTFSC   vykresli, 3
0238   1400           01081                 BSF             port_A, RA0_LED1 ;ok 
0239   1A00           01082                 BTFSC   vykresli, 4
023A   1700           01083                 BSF             port_A, RA6_LED5 ;ok
023B   1A80           01084                 BTFSC   vykresli, 5
023C   1780           01085                 BSF             port_B, RB7_LED11;ok    ;RB2_LED6
023D   1B00           01086                 BTFSC   vykresli, 6
023E   1700           01087                 BSF             port_B, RB6_LED10 ;ok   ;RB3_LED7
023F   1B80           01088                 BTFSC   vykresli, 7
0240   1680           01089                 BSF             port_B, RB5_LED9 ;ok    ;RB4_LED8
0241   1800           01090                 BTFSC   vykresli+1, 0
0242   1600           01091                 BSF             port_B, RB4_LED8 ;ok    ;RB5_LED9
0243   1880           01092                 BTFSC   vykresli+1, 1
0244   1500           01093                 BSF             port_B, RB2_LED6 ;ok
0245   1900           01094                 BTFSC   vykresli+1, 2
0246   1580           01095                 BSF             port_B, RB3_LED7 ;ok
0247   1683 1303      01096                 BANKSEL TRISA
0249   30B0           01097                 MOVLW   0xB0
024A   0085           01098                 MOVWF   TRISA
024B   3001           01099                 MOVLW   0x01
024C   0086           01100                 MOVWF   TRISB
024D   1283 1303      01101                 BANKSEL PORTB
024F   3001           01102                 MOVLW   0x01
MPASM  5.47                   16F628ATMPO.ASM   1-25-2013  19:54:22         PAGE 22


LOC  OBJECT CODE     LINE SOURCE TEXT
  VALUE

0250   0586           01103                 ANDWF   PORTB, F
0251   08??           01104                 MOVF    port_B, W
0252   0486           01105                 IORWF   PORTB, F
0253   30B0           01106                 MOVLW   0xB0
0254   0585           01107                 ANDWF   PORTA, F
0255   08??           01108                 MOVF    port_A, W
0256   0485           01109                 IORWF   PORTA, F
0257   2???           01110                 GOTO    Koniec_vykreslovania
0258                  01111 Zelena_farba
0258   304F           01112                 MOVLW   0x4F
0259   04??           01113                 IORWF   port_A, F
025A   30FC           01114                 MOVLW   0xFC
025B   04??           01115                 IORWF   port_B, F
025C   1800           01116                 BTFSC   vykresli, 0
025D   1100           01117                 BCF             port_A, RA2_LED3 ;ok    ;RA0_LED1
025E   1880           01118                 BTFSC   vykresli, 1
025F   1180           01119                 BCF             port_A, RA3_LED4 ;ok    ;RA1_LED2
0260   1900           01120                 BTFSC   vykresli, 2
0261   1080           01121                 BCF             port_A, RA1_LED2 ;ok
0262   1980           01122                 BTFSC   vykresli, 3
0263   1000           01123                 BCF             port_A, RA0_LED1 ;ok 
0264   1A00           01124                 BTFSC   vykresli, 4
0265   1300           01125                 BCF             port_A, RA6_LED5 ;ok
0266   1A80           01126                 BTFSC   vykresli, 5
0267   1380           01127                 BCF             port_B, RB7_LED11;ok    ;RB2_LED6
0268   1B00           01128                 BTFSC   vykresli, 6
0269   1300           01129                 BCF             port_B, RB6_LED10 ;ok   ;RB3_LED7
026A   1B80           01130                 BTFSC   vykresli, 7
026B   1280           01131                 BCF             port_B, RB5_LED9 ;ok    ;RB4_LED8
026C   1800           01132                 BTFSC   vykresli+1, 0
026D   1200           01133                 BCF             port_B, RB4_LED8 ;ok    ;RB5_LED9
026E   1880           01134                 BTFSC   vykresli+1, 1
026F   1100           01135                 BCF             port_B, RB2_LED6 ;ok
0270   1900           01136                 BTFSC   vykresli+1, 2
0271   1180           01137                 BCF             port_B, RB3_LED7 ;ok
0272   1683 1303      01138                 BANKSEL TRISA
0274   30B0           01139                 MOVLW   0xB0
0275   0085           01140                 MOVWF   TRISA
0276   3001           01141                 MOVLW   0x01
0277   0086           01142                 MOVWF   TRISB
0278   1283 1303      01143                 BANKSEL PORTB
027A   30FE           01144                 MOVLW   0xFE
027B   0486           01145                 IORWF   PORTB, F
027C   08??           01146                 MOVF    port_B, W
027D   0586           01147                 ANDWF   PORTB, F
027E   304F           01148                 MOVLW   0x4F
027F   0485           01149                 IORWF   PORTA, F        
0280   08??           01150                 MOVF    port_A, W
0281   0585           01151                 ANDWF   PORTA, F
0282                  01152 Koniec_vykreslovania
0282   1886           01153                 BTFSC   PORTB, RB1_COLOR
0283   3002           01154                 MOVLW   0x02
0284   1C86           01155                 BTFSS   PORTB, RB1_COLOR
MPASM  5.47                   16F628ATMPO.ASM   1-25-2013  19:54:22         PAGE 23


LOC  OBJECT CODE     LINE SOURCE TEXT
  VALUE

0285   3001           01156                 MOVLW   0x01
0286   1900           01157                 BTFSC   vykresli, 2
0287   3E02           01158                 ADDLW   0x02
0288   00??           01159                 MOVWF   mod_nah
Warning[203]: Found opcode in column 1. (RETURN)
0289   0008           01160 RETURN
                      01161 
                      01162 
028A                  01163 Precitaj_znak_z_EEPROM
028A   1683 1303      01164                 BANKSEL EEADR
028C   009B           01165                 MOVWF   EEADR
028D   141C           01166                 BSF             EECON1, RD
028E   081A           01167                 MOVF    EEDATA, W
028F   ???? ????      01168                 BANKSEL znak
0291   00??           01169                 MOVWF   znak
Warning[203]: Found opcode in column 1. (RETURN)
0292   0008           01170 RETURN
                      01171 
                      01172 
0293                  01173 Zapis_znak_do_EEPROM
0293   ???? ????      01174                 BANKSEL eeadr_wr
0295   08??           01175                 MOVF    eeadr_wr, W
0296   1683 1303      01176                 BANKSEL EEADR
0298   009B           01177                 MOVWF   EEADR
0299   ???? ????      01178                 BANKSEL eedata_wr
029B   08??           01179                 MOVF    eedata_wr, W
029C   1683 1303      01180                 BANKSEL EEDATA
029E   009A           01181                 MOVWF   EEDATA
029F   1683 1303      01182                 BANKSEL EECON1
02A1   151C           01183                 BSF             EECON1, WREN
02A2   138B           01184                 BCF             INTCON, GIE
02A3   1B8B           01185                 BTFSC   INTCON, GIE
02A4   2???           01186                 GOTO    $-2
02A5   3055           01187                 MOVLW   0x55
02A6   009D           01188                 MOVWF   EECON2
02A7   30AA           01189                 MOVLW   0xAA
02A8   009D           01190                 MOVWF   EECON2
02A9   149C           01191                 BSF             EECON1, WR
02AA   178B           01192                 BSF             INTCON, GIE
02AB   111C           01193                 BCF             EECON1, WREN
02AC   ???? ????      01194                 BANKSEL eeadr_wr
Warning[203]: Found opcode in column 1. (RETURN)
02AE   0008           01195 RETURN
                      01196 
                      01197 
                      01198 ;##############################################################
                      01199 ;####################### PRERUSENIA ###########################
                      01200 ;##############################################################
                      01201 
02AF                  01202 Prerusenie_RB0
02AF   108B           01203                 BCF             INTCON, INTF
                      01204 
                      01205                 ;BANKSEL PORTA
MPASM  5.47                   16F628ATMPO.ASM   1-25-2013  19:54:22         PAGE 24


LOC  OBJECT CODE     LINE SOURCE TEXT
  VALUE

                      01206                 ;BTFSC  PORTA, RA4_TLAC
                      01207                 ;GOTO   Koniec_rc
                      01208 
                      01209                 ;BANKSEL zamkni
                      01210                 ;BSF            zamkni, 0x00
                      01211 
02B0   ???? ????      01212                 BANKSEL rs232
02B2   1980           01213                 BTFSC   rs232, DATA_GO
02B3   2???           01214                 GOTO    Koniec_rc
                      01215 
02B4   1C00           01216                 BTFSS   rs232, KAL_OK
02B5   2???           01217                 GOTO    Preskoc_kal_ok
02B6   08??           01218                 MOVF    maly_krok, W
02B7   008E           01219                 MOVWF   TMR1L
02B8   08??           01220                 MOVF    maly_krok+1, W
02B9   008F           01221                 MOVWF   TMR1H
02BA   3008           01222                 MOVLW   0x08
02BB   00??           01223                 MOVWF   posun_bitov
02BC   1580           01224                 BSF             rs232, DATA_GO
02BD   120B           01225                 BCF             INTCON, INTE
02BE   100C           01226                 BCF             PIR1, TMR1IF
02BF   1410           01227                 BSF             T1CON, TMR1ON
02C0   2???           01228                 GOTO    Koniec_rc
02C1                  01229 Preskoc_kal_ok
                      01230 
02C1   1880           01231                 BTFSC   rs232, START_KAL
02C2   2???           01232                 GOTO    Preskoc_kalibraciu
02C3   1C06           01233                 BTFSS   PORTB, RB0_RX
02C4   2???           01234                 GOTO    Koniec_rc
02C5   018E           01235                 CLRF    TMR1L
02C6   018F           01236                 CLRF    TMR1H
02C7   1410           01237                 BSF             T1CON, TMR1ON
                      01238                 ;CLRF   pocet_prij
02C8   1700           01239                 BSF             rs232, NEVYKRESLUJ
02C9   1780           01240                 BSF             rs232, RAZ
02CA   1683 1303      01241                 BANKSEL OPTION_REG
02CC   1301           01242                 BCF             OPTION_REG, INTEDG
02CD   ???? ????      01243                 BANKSEL rs232
02CF   1480           01244                 BSF             rs232, START_KAL
02D0   2???           01245                 GOTO    Koniec_rc
02D1                  01246 Preskoc_kalibraciu      
                      01247 
02D1   1900           01248                 BTFSC   rs232, MERAM_KAL
02D2   2???           01249                 GOTO    Preskoc_vypocet_kroku
02D3   1C06           01250                 BTFSS   PORTB, RB0_RX
02D4   2???           01251                 GOTO    Preskoc_chybu
02D5   01??           01252                 CLRF    vykresli+1
02D6   3001           01253                 MOVLW   0x01
02D7   00??           01254                 MOVWF   vykresli
02D8   1380           01255                 BCF             stav, FARBA
02D9   2???           01256                 CALL    Vykresli_LED
02DA                  01257 Koniec_chyba_0x01       
02DA   2???           01258                 GOTO    Koniec_chyba_0x01
MPASM  5.47                   16F628ATMPO.ASM   1-25-2013  19:54:22         PAGE 25


LOC  OBJECT CODE     LINE SOURCE TEXT
  VALUE

02DB                  01259 Preskoc_chybu
02DB   1683 1303      01260                 BANKSEL OPTION_REG
02DD   1701           01261                 BSF             OPTION_REG, INTEDG
02DE   1283 1303      01262                 BANKSEL T1CON
02E0   1010           01263                 BCF             T1CON, TMR1ON
02E1   080E           01264                 MOVF    TMR1L, W
02E2   00??           01265                 MOVWF   velky_krok
02E3   080F           01266                 MOVF    TMR1H, W
02E4   00??           01267                 MOVWF   velky_krok+1
02E5   3003           01268                 MOVLW   0x03
02E6   00??           01269                 MOVWF   cyklus_int
02E7                  01270 Delenie_8
02E7   1003           01271                 BCF             STATUS, C
02E8   0C??           01272                 RRF             velky_krok+1, F
02E9   0C??           01273                 RRF             velky_krok, F
02EA   0B??           01274                 DECFSZ  cyklus_int, F
02EB   2???           01275                 GOTO    Delenie_8
                      01276 
02EC   1003           01277                 BCF             STATUS, C
02ED   0C??           01278                 RRF             velky_krok+1, W
02EE   00??           01279                 MOVWF   maly_krok+1
02EF   0C??           01280                 RRF             velky_krok, W
02F0   00??           01281                 MOVWF   maly_krok
                      01282 
02F1   301B           01283                 MOVLW   0x1B ;27 taktov
02F2   02??           01284                 SUBWF   velky_krok, F
02F3   1803           01285                 BTFSC   STATUS, C
02F4   3000           01286                 MOVLW   0x00
02F5   1C03           01287                 BTFSS   STATUS, C
02F6   3001           01288                 MOVLW   0x01
02F7   02??           01289                 SUBWF   velky_krok+1, F
                      01290 
02F8   08??           01291                 MOVF    velky_krok, W
02F9   07??           01292                 ADDWF   maly_krok, F
02FA   1803           01293                 BTFSC   STATUS, C
02FB   0A??           01294                 INCF    velky_krok+1, W
02FC   1C03           01295                 BTFSS   STATUS, C
02FD   08??           01296                 MOVF    velky_krok+1, W
02FE   07??           01297                 ADDWF   maly_krok+1, F
                      01298 
02FF   09??           01299                 COMF    maly_krok, F
0300   09??           01300                 COMF    maly_krok+1, F
                      01301 
0301   09??           01302                 COMF    velky_krok, F
0302   09??           01303                 COMF    velky_krok+1, F
                      01304                 
0303   1400           01305                 BSF             rs232, KAL_OK
0304   1500           01306                 BSF             rs232, MERAM_KAL
0305   2???           01307                 GOTO    Koniec_rc               
0306                  01308 Preskoc_vypocet_kroku
                      01309                 
0306                  01310 Koniec_rc
Warning[203]: Found opcode in column 1. (RETURN)
MPASM  5.47                   16F628ATMPO.ASM   1-25-2013  19:54:22         PAGE 26


LOC  OBJECT CODE     LINE SOURCE TEXT
  VALUE

0306   0008           01311 RETURN
                      01312 
                      01313 
0307                  01314 Prerusenie_EEPROM
0307   138C           01315                 BCF             PIR1, EEIF
0308   ???? ????      01316                 BANKSEL rs232
030A   1600           01317                 BSF             rs232, EE_WR_OK
Warning[203]: Found opcode in column 1. (RETURN)
030B   0008           01318 RETURN
                      01319 
                      01320 
030C                  01321 Prerusenie_TMR0
030C   110B           01322                 BCF             INTCON, T0IF
030D   1400           01323                 BSF             stav, TMR0_TICK
Warning[203]: Found opcode in column 1. (RETURN)
030E   0008           01324 RETURN
                      01325 
                      01326 
030F                  01327 Prerusenie_TMR1
                      01328 ;               BSF             stav, TMR1_TICK
030F   1D80           01329                 BTFSS   rs232, DATA_GO
0310   2???           01330                 GOTO    TMR1_end
0311   1003           01331                 BCF             STATUS, C
0312   1C06           01332                 BTFSS   PORTB, RB0_RX
0313   1403           01333                 BSF             STATUS, C
0314   0C??           01334                 RRF             rc_bajt, F
0315   08??           01335                 MOVF    velky_krok, W
0316   008E           01336                 MOVWF   TMR1L
0317   08??           01337                 MOVF    velky_krok+1, W
0318   008F           01338                 MOVWF   TMR1H
0319   0B??           01339                 DECFSZ  posun_bitov, F
031A   2???           01340                 GOTO    TMR1_end
031B   1010           01341                 BCF             T1CON, TMR1ON
031C   08??           01342                 MOVF    rc_bajt, W
031D   00??           01343                 MOVWF   rc_bajt2
                      01344                 ;MOVWF  vykresli
                      01345                 ;CALL   Vykresli_LED
031E   1580           01346                 BSF             stav, SPRACUJ
                      01347                 ;BCF            rs232, DATA_GO
                      01348                 ;CLRF   rs232
031F   1180           01349                 BCF             rs232, DATA_GO
0320   108B           01350                 BCF             INTCON, INTF
0321   160B           01351                 BSF             INTCON, INTE
0322                  01352 TMR1_end
0322   100C           01353                 BCF             PIR1, TMR1IF
Warning[203]: Found opcode in column 1. (RETURN)
0323   0008           01354 RETURN
                      01355 
                      01356 ;%%%%%%%%%%%%%%%%%%%%%%%%%%%%%%%%%%%%%%%%%%%%%%%%%%%%%%%%%%%%%%%%%%%%%
                      01357 ;%%%%%%%%%%%%%%%%%%%%%%%%%%%%%% TABULKY ASCII %%%%%%%%%%%%%%%%%%%%%%%%
                      01358 ;%%%%%%%%%%%%%%%%%%%%%%%%%%%%%%%%%%%%%%%%%%%%%%%%%%%%%%%%%%%%%%%%%%%%%
                      01359 
                      01360 
MPASM  5.47                   16F628ATMPO.ASM   1-25-2013  19:54:22         PAGE 27


LOC  OBJECT CODE     LINE SOURCE TEXT
  VALUE

                      01361 Prevod_ASCII_offset ORG 0x03C4
03C4   00??           01362                 MOVWF tab_pom
03C5   01??           01363                 CLRF  tabulka
03C6   3AFF           01364                 XORLW 0xFF
03C7   1D03           01365                 BTFSS STATUS, Z
03C8   2???           01366                 GOTO  Preskoc_znak_255
03C9   2???           01367                 GOTO  Ofset_medzera
03CA                  01368 Preskoc_znak_255
                      01369 
03CA   08??           01370                 MOVF    tab_pom, W
03CB   3A0D           01371                 XORLW 0x0D
03CC   1D03           01372                 BTFSS STATUS, Z
03CD   2???           01373                 GOTO  Preskoc_znak_13
03CE   2???           01374                 GOTO  Ofset_medzera
03CF                  01375 Preskoc_znak_13 
                      01376 
03CF   301F           01377                 MOVLW 0x1F ;31
03D0   02??           01378                 SUBWF tab_pom, W
03D1   00??           01379                 MOVWF adress_offset ;uloz W do adress_offset
03D2   30??           01380                 MOVLW LOW TabulkaText ;W = low 8 bitov z adresy
03D3   07??           01381                 ADDWF adress_offset,F
03D4   30??           01382                 MOVLW HIGH TabulkaText ;W = high 8 bitov z adresy
03D5   1803           01383                 BTFSC STATUS,C ;PAGE CROSSED?
03D6   3E01           01384                 ADDLW 0x01 ;ak ano tak W = W + 1
03D7   008A           01385                 MOVWF PCLATH ;nahraj high adress to latch
03D8   08??           01386                 MOVF  adress_offset, W
03D9   2???           01387                 CALL  TabulkaText
03DA   00??           01388                 MOVWF offset ;zisteny offset
                      01389 
                      01390 ;test pre 3 tabulku
03DB   08??           01391                 MOVF  tab_pom, W
03DC   3C9D           01392                 SUBLW 0x9D ;157   - koniec 2. tabulky
                      01393 ;k - W => W             157 - W -> W
03DD   1803           01394                 BTFSC STATUS, C ;ak je kladne - preskoc 3. tabulku
03DE   2???           01395                 GOTO  Preskoc_3tab
03DF   08??           01396                 MOVF  offset, W
03E0   3CFF           01397                 SUBLW OFFSET_medzera ;zisti ci offset je medzera
03E1   1903           01398                 BTFSC STATUS, Z
03E2   2???           01399                 GOTO  Ofset_medzera     ;ak je medzera
03E3   1500           01400                 BSF   tabulka, 0x02 ;tabulka 3
03E4   2???           01401                 GOTO  Koniec_testu
03E5                  01402 Preskoc_3tab
                      01403 
                      01404 ;test pre 2 tabulku
03E5   08??           01405                 MOVF  tab_pom,W
03E6   3C52           01406                 SUBLW 0x52 ;82   - koniec 1. tabulky
                      01407 ;k - W => W             82 - W -> W
03E7   1803           01408                 BTFSC STATUS, C ;ak je kladne - preskoc 2. tabulku
03E8   2???           01409                 GOTO  Preskoc_2tab
03E9   08??           01410                 MOVF  offset, W
03EA   3CFF           01411                 SUBLW OFFSET_medzera ;zisti ci offset je medzera
03EB   1903           01412                 BTFSC STATUS, Z
03EC   2???           01413                 GOTO  Ofset_medzera     ;ak je medzera
MPASM  5.47                   16F628ATMPO.ASM   1-25-2013  19:54:22         PAGE 28


LOC  OBJECT CODE     LINE SOURCE TEXT
  VALUE

03ED   1480           01414                 BSF   tabulka, 0x01 ;tabulka 2
03EE   2???           01415                 GOTO  Koniec_testu
03EF                  01416 Preskoc_2tab
03EF   1400           01417                 BSF   tabulka, 0x00 ;1. tabulka
03F0   2???           01418                 GOTO  Koniec_testu
                      01419 
03F1                  01420 Ofset_medzera
03F1   3000           01421                 MOVLW OFFSET_medzernik
03F2   00??           01422                 MOVWF offset
03F3   1400           01423                 BSF   tabulka, 0x00 ;medzera je v 1. tabulke
03F4                  01424 Koniec_testu
03F4   08??           01425                 MOVF  offset, W         
03F5   0008           01426                 RETURN
                      01427 
                      01428 
                      01429 TabulkaText ORG 0x0401
                      01430                 ;ADDWF PCL, F
0401   0082           01431                 MOVWF PCL
0402   3400           01432                 RETLW OFFSET_medzernik  ;32
                      01433 
0403   3405           01434                 RETLW OFFSET_vykr       ;33
0404   340A           01435                 RETLW OFFSET_dvoj_apostrof      ;34
0405   340F           01436                 RETLW OFFSET_#  ;35
0406   3414           01437                 RETLW OFFSET_dolar      ;36
0407   3419           01438                 RETLW OFFSET_percento   ;37
0408   341E           01439                 RETLW OFFSET_and        ;38
0409   3423           01440                 RETLW OFFSET_apostrof   ;39
                      01441 
040A   3428           01442                 RETLW OFFSET_lz ;40
040B   342D           01443                 RETLW OFFSET_pz ;41
040C   3432           01444                 RETLW OFFSET_hviezda    ;42
040D   3437           01445                 RETLW OFFSET_plus       ;43
040E   343C           01446                 RETLW OFFSET_ciarka     ;44
040F   3441           01447                 RETLW OFFSET_minus      ;45
0410   3446           01448                 RETLW OFFSET_bodka      ;46
0411   344B           01449                 RETLW OFFSET_plomitko   ;47
0412   3450           01450                 RETLW OFFSET_0  ;48
0413   3455           01451                 RETLW OFFSET_1  ;49
                      01452 
0414   345A           01453                 RETLW OFFSET_2  ;50
0415   345F           01454                 RETLW OFFSET_3  ;51
0416   3464           01455                 RETLW OFFSET_4  ;52
0417   3469           01456                 RETLW OFFSET_5  ;53
0418   346E           01457                 RETLW OFFSET_6  ;54
0419   3473           01458                 RETLW OFFSET_7  ;55
041A   3478           01459                 RETLW OFFSET_8  ;56
041B   347D           01460                 RETLW OFFSET_9  ;57
041C   3482           01461                 RETLW OFFSET_dvojbodka  ;58 
041D   3487           01462                 RETLW OFFSET_bciarka    ;59
                      01463 
041E   348C           01464                 RETLW OFFSET_mensi      ;60
041F   3491           01465                 RETLW OFFSET_rovny      ;61
0420   3496           01466                 RETLW OFFSET_vacsi      ;62
MPASM  5.47                   16F628ATMPO.ASM   1-25-2013  19:54:22         PAGE 29


LOC  OBJECT CODE     LINE SOURCE TEXT
  VALUE

0421   349B           01467                 RETLW OFFSET_?  ;63
0422   34A0           01468                 RETLW OFFSET_@  ;64
0423   34A5           01469                 RETLW OFFSET_A  ;65
0424   34AA           01470                 RETLW OFFSET_B  ;66
0425   34AF           01471                 RETLW OFFSET_C  ;67
0426   34B4           01472                 RETLW OFFSET_D  ;68
0427   34B9           01473                 RETLW OFFSET_E  ;69
                      01474 
0428   34BE           01475                 RETLW OFFSET_F  ;70
0429   34C3           01476                 RETLW OFFSET_G  ;71
042A   34C8           01477                 RETLW OFFSET_H  ;72
042B   34CD           01478                 RETLW OFFSET_I  ;73
042C   34D2           01479                 RETLW OFFSET_J  ;74
042D   34D7           01480                 RETLW OFFSET_K  ;75
042E   34DC           01481                 RETLW OFFSET_L  ;76
042F   34E1           01482                 RETLW OFFSET_M  ;77
0430   34E6           01483                 RETLW OFFSET_N  ;78
0431   34EB           01484                 RETLW OFFSET_O  ;79
                      01485 
0432   34F0           01486                 RETLW OFFSET_P  ;80
0433   34F5           01487                 RETLW OFFSET_Q  ;81
0434   34FA           01488                 RETLW OFFSET_R  ;82
0435   3400           01489                 RETLW OFFSET_S  ;83
0436   3405           01490                 RETLW OFFSET_T  ;84
0437   340A           01491                 RETLW OFFSET_U  ;85
0438   340F           01492                 RETLW OFFSET_V  ;86
0439   3414           01493                 RETLW OFFSET_W  ;87
043A   3419           01494                 RETLW OFFSET_X  ;88
043B   341E           01495                 RETLW OFFSET_Y  ;89
                      01496 
043C   3423           01497                 RETLW OFFSET_Z  ;90
043D   3428           01498                 RETLW OFFSET_lhz        ;91
043E   342D           01499                 RETLW OFFSET_llomitko   ;92
043F   3432           01500                 RETLW OFFSET_phz        ;93
0440   3437           01501                 RETLW OFFSET_striezka   ;94
0441   343C           01502                 RETLW OFFSET__  ;95
0442   3441           01503                 RETLW OFFSET_opdl       ;96
0443   3446           01504                 RETLW OFFSET_a  ;97 
0444   344B           01505                 RETLW OFFSET_b  ;98
0445   3450           01506                 RETLW OFFSET_c  ;99
                      01507 
0446   3455           01508                 RETLW OFFSET_d  ;100
0447   345A           01509                 RETLW OFFSET_e  ;101
0448   345F           01510                 RETLW OFFSET_f  ;102
0449   3464           01511                 RETLW OFFSET_g  ;103
044A   3469           01512                 RETLW OFFSET_h  ;104
044B   346E           01513                 RETLW OFFSET_i  ;105
044C   3473           01514                 RETLW OFFSET_j  ;106
044D   3478           01515                 RETLW OFFSET_k  ;107
044E   347D           01516                 RETLW OFFSET_l  ;108
044F   3482           01517                 RETLW OFFSET_m  ;109
                      01518 
0450   3487           01519                 RETLW OFFSET_n  ;110
MPASM  5.47                   16F628ATMPO.ASM   1-25-2013  19:54:22         PAGE 30


LOC  OBJECT CODE     LINE SOURCE TEXT
  VALUE

0451   348C           01520                 RETLW OFFSET_o  ;111
0452   3491           01521                 RETLW OFFSET_p  ;112
0453   3496           01522                 RETLW OFFSET_q  ;113
0454   349B           01523                 RETLW OFFSET_r  ;114
0455   34A0           01524                 RETLW OFFSET_s  ;115
0456   34A5           01525                 RETLW OFFSET_t  ;116
0457   34AA           01526                 RETLW OFFSET_u  ;117
0458   34AF           01527                 RETLW OFFSET_v  ;118
0459   34B4           01528                 RETLW OFFSET_w  ;119
                      01529 
045A   34B9           01530                 RETLW OFFSET_x  ;120
045B   34BE           01531                 RETLW OFFSET_y  ;121
045C   34C3           01532                 RETLW OFFSET_z  ;122
045D   34C8           01533                 RETLW OFFSET_lzlz       ;123
045E   34CD           01534                 RETLW OFFSET_stlp       ;124
045F   34D2           01535                 RETLW OFFSET_pzlz       ;125
0460   34FF           01536                 RETLW OFFSET_koniec     ;126 ;povodne OFFSET_koniec
0461   34FF           01537                 RETLW OFFSET_medzera    ;127
0462   34FF           01538                 RETLW OFFSET_medzera    ;128
0463   34FF           01539                 RETLW OFFSET_medzera    ;129
                      01540 
0464   34D7           01541                 RETLW OFFSET_ciarka2    ;130
0465   34DC           01542                 RETLW OFFSET_bodka2             ;131
0466   34E1           01543                 RETLW OFFSET_dapostrof  ;132
0467   34FF           01544                 RETLW OFFSET_medzera    ;133
0468   34FF           01545                 RETLW OFFSET_medzera    ;134
0469   34FF           01546                 RETLW OFFSET_medzera    ;135
046A   34FF           01547                 RETLW OFFSET_medzera    ;136
046B   34FF           01548                 RETLW OFFSET_medzera    ;137
046C   34E6           01549                 RETLW OFFSET_m_S        ;138
046D   34FF           01550                 RETLW OFFSET_medzera    ;139
                      01551 
046E   34FF           01552                 RETLW OFFSET_medzera    ;140
046F   34EB           01553                 RETLW OFFSET_m_T        ;141
0470   34F0           01554                 RETLW OFFSET_m_Z        ;142
0471   34FF           01555                 RETLW OFFSET_medzera    ;143
0472   34FF           01556                 RETLW OFFSET_medzera    ;144
0473   34FF           01557                 RETLW OFFSET_medzera    ;145
0474   34FF           01558                 RETLW OFFSET_medzera    ;146
0475   34FF           01559                 RETLW OFFSET_medzera    ;147
0476   34FF           01560                 RETLW OFFSET_medzera    ;148
0477   34FF           01561                 RETLW OFFSET_medzera    ;149
                      01562 
0478   34FF           01563                 RETLW OFFSET_medzera    ;150
0479   34FF           01564                 RETLW OFFSET_medzera    ;151
047A   34FF           01565                 RETLW OFFSET_medzera    ;152
047B   34FF           01566                 RETLW OFFSET_medzera    ;153
047C   34F5           01567                 RETLW OFFSET_m_s        ;154
047D   34FF           01568                 RETLW OFFSET_medzera    ;155
047E   34FF           01569                 RETLW OFFSET_medzera    ;156
047F   34FA           01570                 RETLW OFFSET_m_t        ;157
0480   3400           01571                 RETLW OFFSET_m_z        ;158
0481   34FF           01572                 RETLW OFFSET_medzera    ;159
MPASM  5.47                   16F628ATMPO.ASM   1-25-2013  19:54:22         PAGE 31


LOC  OBJECT CODE     LINE SOURCE TEXT
  VALUE

                      01573 
0482   34FF           01574                 RETLW OFFSET_medzera    ;160
0483   3405           01575                 RETLW OFFSET_makcen     ;161
0484   34FF           01576                 RETLW OFFSET_medzera    ;162
0485   34FF           01577                 RETLW OFFSET_medzera    ;163
0486   34FF           01578                 RETLW OFFSET_medzera    ;164
0487   34FF           01579                 RETLW OFFSET_medzera    ;165
0488   34FF           01580                 RETLW OFFSET_medzera    ;166
0489   340A           01581                 RETLW OFFSET_paragraf   ;167
048A   34FF           01582                 RETLW OFFSET_medzera    ;168
048B   34FF           01583                 RETLW OFFSET_medzera    ;169
                      01584 
048C   34FF           01585                 RETLW OFFSET_medzera    ;170
048D   34FF           01586                 RETLW OFFSET_medzera    ;171
048E   34FF           01587                 RETLW OFFSET_medzera    ;172
048F   34FF           01588                 RETLW OFFSET_medzera    ;173
0490   34FF           01589                 RETLW OFFSET_medzera    ;174
0491   34FF           01590                 RETLW OFFSET_medzera    ;175
0492   340F           01591                 RETLW OFFSET_stupen             ;176
0493   34FF           01592                 RETLW OFFSET_medzera    ;177
0494   34FF           01593                 RETLW OFFSET_medzera    ;178
0495   34FF           01594                 RETLW OFFSET_medzera    ;179
                      01595 
0496   34FF           01596                 RETLW OFFSET_medzera    ;180
0497   34FF           01597                 RETLW OFFSET_medzera    ;181
0498   34FF           01598                 RETLW OFFSET_medzera    ;182
0499   34FF           01599                 RETLW OFFSET_medzera    ;183
049A   34FF           01600                 RETLW OFFSET_medzera    ;184
049B   34FF           01601                 RETLW OFFSET_medzera    ;185
049C   34FF           01602                 RETLW OFFSET_medzera    ;186
049D   34FF           01603                 RETLW OFFSET_medzera    ;187
049E   3414           01604                 RETLW OFFSET_m_L                ;188
049F   34FF           01605                 RETLW OFFSET_medzera    ;189
                      01606 
04A0   3419           01607                 RETLW OFFSET_m_l                ;190
04A1   34FF           01608                 RETLW OFFSET_medzera    ;191
04A2   341E           01609                 RETLW OFFSET_¿                  ;192
04A3   3423           01610                 RETLW OFFSET_¡                  ;193
04A4   34FF           01611                 RETLW OFFSET_medzera    ;194
04A5   34FF           01612                 RETLW OFFSET_medzera    ;195
04A6   3428           01613                 RETLW OFFSET_ƒ                  ;196
04A7   342D           01614                 RETLW OFFSET_≈                  ;197
04A8   34FF           01615                 RETLW OFFSET_medzera    ;198
04A9   34FF           01616                 RETLW OFFSET_medzera    ;199
                      01617 
04AA   3432           01618                 RETLW OFFSET_»  ;200
04AB   3437           01619                 RETLW OFFSET_…  ;201
04AC   34FF           01620                 RETLW OFFSET_medzera    ;202
04AD   34FF           01621                 RETLW OFFSET_medzera    ;203
04AE   343C           01622                 RETLW OFFSET_Ã  ;204
04AF   3441           01623                 RETLW OFFSET_Õ  ;205
04B0   34FF           01624                 RETLW OFFSET_medzera    ;206
04B1   3446           01625                 RETLW OFFSET_œ  ;207
MPASM  5.47                   16F628ATMPO.ASM   1-25-2013  19:54:22         PAGE 32


LOC  OBJECT CODE     LINE SOURCE TEXT
  VALUE

04B2   34FF           01626                 RETLW OFFSET_medzera    ;208
04B3   34FF           01627                 RETLW OFFSET_medzera    ;209
                      01628 
04B4   344B           01629                 RETLW OFFSET_“  ;210
04B5   3450           01630                 RETLW OFFSET_”  ;211
04B6   3455           01631                 RETLW OFFSET_‘  ;212
04B7   34FF           01632                 RETLW OFFSET_medzera    ;213
04B8   34FF           01633                 RETLW OFFSET_medzera    ;214
04B9   34FF           01634                 RETLW OFFSET_medzera    ;215
04BA   345A           01635                 RETLW OFFSET_ÿ  ;216
04BB   345F           01636                 RETLW OFFSET_Ÿ  ;217
04BC   3464           01637                 RETLW OFFSET_⁄  ;218
04BD   34FF           01638                 RETLW OFFSET_medzera    ;219
                      01639 
04BE   34FF           01640                 RETLW OFFSET_medzera    ;220
04BF   3469           01641         RETLW OFFSET_›  ;221
04C0   34FF           01642         RETLW OFFSET_medzera    ;222
04C1   34FF           01643         RETLW OFFSET_medzera    ;223
04C2   346E           01644         RETLW OFFSET_‡  ;224
04C3   3473           01645         RETLW OFFSET_·  ;225
04C4   34FF           01646         RETLW OFFSET_medzera    ;226
04C5   34FF           01647         RETLW OFFSET_medzera    ;227
04C6   3478           01648         RETLW OFFSET_‰  ;228
04C7   347D           01649         RETLW OFFSET_Â  ;229
                      01650 
04C8   34FF           01651         RETLW OFFSET_medzera    ;230
04C9   34FF           01652         RETLW OFFSET_medzera    ;231
04CA   3482           01653         RETLW OFFSET_Ë  ;232
04CB   3487           01654         RETLW OFFSET_È  ;233
04CC   34FF           01655         RETLW OFFSET_medzera    ;234
04CD   34FF           01656         RETLW OFFSET_medzera    ;235
04CE   348C           01657         RETLW OFFSET_Ï  ;236
04CF   3491           01658         RETLW OFFSET_Ì  ;237
04D0   34FF           01659         RETLW OFFSET_medzera    ;238
04D1   3496           01660         RETLW OFFSET_Ô  ;239
                      01661 
04D2   34FF           01662         RETLW OFFSET_medzera    ;240
04D3   34FF           01663         RETLW OFFSET_medzera    ;241
04D4   349B           01664         RETLW OFFSET_Ú  ;242
04D5   34A0           01665         RETLW OFFSET_Û  ;243
04D6   34A5           01666         RETLW OFFSET_Ù  ;244
04D7   34FF           01667         RETLW OFFSET_medzera    ;245
04D8   34FF           01668         RETLW OFFSET_medzera    ;246
04D9   34AA           01669         RETLW OFFSET_˜  ;247
04DA   34AF           01670         RETLW OFFSET_¯  ;248
04DB   34B4           01671         RETLW OFFSET_˘  ;249
                      01672 
04DC   34B9           01673         RETLW OFFSET_˙  ;250
04DD   34FF           01674         RETLW OFFSET_medzera    ;251
04DE   34FF           01675         RETLW OFFSET_medzera    ;252
04DF   34BE           01676         RETLW OFFSET_˝  ;253
04E0   34FF           01677         RETLW OFFSET_medzera    ;254
                      01678         ;RETLW 0x00     ;255
MPASM  5.47                   16F628ATMPO.ASM   1-25-2013  19:54:22         PAGE 33


LOC  OBJECT CODE     LINE SOURCE TEXT
  VALUE

                      01679 
                      01680                 
                      01681 ;koniec tabulky 
                      01682 
                      01683 ;obsluha z ktorej tabulky a aky segment vybrat
                      01684 Vyber_z_tabulky_segment ORG 0x04E1
04E1   1800           01685                 BTFSC tabulka, 0x00
04E2   2???           01686                 CALL Vyber_z_tabulky1
04E3   1880           01687                 BTFSC tabulka, 0x01
04E4   2???           01688                 CALL Vyber_z_tabulky2 
04E5   1900           01689                 BTFSC tabulka, 0x02
04E6   2???           01690                 CALL Vyber_z_tabulky3   
Warning[203]: Found opcode in column 1. (RETURN)
04E7   0008           01691 RETURN
                      01692 
                      01693 Vyber_z_tabulky1 ORG 0x04F3
04F3   3E01           01694                 ADDLW 0x01
04F4   00??           01695                 MOVWF adress_offset ;uloz W do adress_offset
04F5   30??           01696                 MOVLW LOW Tabulka1 ;W = low 8 bitov z adresy
04F6   07??           01697                 ADDWF adress_offset,F
04F7   30??           01698                 MOVLW HIGH Tabulka1 ;W = high 8 bitov z adresy
04F8   1803           01699                 BTFSC STATUS,C ;PAGE CROSSED?
04F9   3E01           01700                 ADDLW 0x01 ;ak ano tak W = W + 1
04FA   008A           01701                 MOVWF PCLATH ;nahraj high adress to latch
04FB   08??           01702                 MOVF  adress_offset, W
04FC   2???           01703                 CALL  Tabulka1                                                          
                      01704 
04FD   0008           01705                 RETURN
                      01706 
                      01707 Tabulka1 ORG 0x0500;4FA
                      01708 ;vstupna adresa je vo W registre
                      01709                 ;ADDWF PCL,F
0500   0082           01710                 MOVWF PCL
                      01711  ;znak medzera   offset = 0
0501   3400           01712         RETLW 0x00  ;0  0000 0000
0502   3400           01713         RETLW 0x00  ;1  0000 0000
0503   3400           01714         RETLW 0x00  ;2  0000 0000
0504   3400           01715         RETLW 0x00  ;3  0000 0000
0505   3400           01716         RETLW 0x00  ;4  0000 0000
                      01717  
                      01718  ;znak !   offset = 5
0506   3400           01719         RETLW 0x00  ;5  0000 0000
0507   34BE           01720         RETLW 0xBE  ;6  1011 1110
0508   3400           01721         RETLW 0x00  ;7  0000 0000
0509   3400           01722         RETLW 0x00  ;8  0000 0000
050A   3400           01723         RETLW 0x00  ;9  0000 0000
                      01724  
                      01725  ;znak "   offset = 10
050B   3400           01726         RETLW 0x00  ;10  0000 0000
050C   3406           01727         RETLW 0x06  ;11  0000 0110
050D   3400           01728         RETLW 0x00  ;12  0000 0000
050E   3406           01729         RETLW 0x06  ;13  0000 0110
050F   3400           01730         RETLW 0x00  ;14  0000 0000
MPASM  5.47                   16F628ATMPO.ASM   1-25-2013  19:54:22         PAGE 34


LOC  OBJECT CODE     LINE SOURCE TEXT
  VALUE

                      01731  
                      01732  ;znak #   offset = 15
0510   3428           01733         RETLW 0x28  ;15  0010 1000
0511   347C           01734         RETLW 0x7C  ;16  0111 1100
0512   3428           01735         RETLW 0x28  ;17  0010 1000
0513   347C           01736         RETLW 0x7C  ;18  0111 1100
0514   3428           01737         RETLW 0x28  ;19  0010 1000
                      01738  
                      01739  ;znak $   offset = 20
0515   3424           01740         RETLW 0x24  ;20  0010 0100
0516   344A           01741         RETLW 0x4A  ;21  0100 1010
0517   34FF           01742         RETLW 0xFF  ;22  1111 1111
0518   344A           01743         RETLW 0x4A  ;23  0100 1010
0519   3430           01744         RETLW 0x30  ;24  0011 0000
                      01745  
                      01746  ;znak %   offset = 25
051A   3440           01747         RETLW 0x40  ;25  0100 0000
051B   3424           01748         RETLW 0x24  ;26  0010 0100
051C   3410           01749         RETLW 0x10  ;27  0001 0000
051D   3448           01750         RETLW 0x48  ;28  0100 1000
051E   3404           01751         RETLW 0x04  ;29  0000 0100
                      01752  
                      01753  ;znak &   offset = 30
051F   3440           01754         RETLW 0x40  ;30  0100 0000
0520   34A4           01755         RETLW 0xA4  ;31  1010 0100
0521   349A           01756         RETLW 0x9A  ;32  1001 1010
0522   3464           01757         RETLW 0x64  ;33  0110 0100
0523   3490           01758         RETLW 0x90  ;34  1001 0000
                      01759  
                      01760  ;znak '   offset = 35
0524   3400           01761         RETLW 0x00  ;35  0000 0000
0525   3406           01762         RETLW 0x06  ;36  0000 0110
0526   3400           01763         RETLW 0x00  ;37  0000 0000
0527   3400           01764         RETLW 0x00  ;38  0000 0000
0528   3400           01765         RETLW 0x00  ;39  0000 0000
                      01766  
                      01767  ;znak (   offset = 40
0529   3400           01768         RETLW 0x00  ;40  0000 0000
052A   343C           01769         RETLW 0x3C  ;41  0011 1100
052B   3442           01770         RETLW 0x42  ;42  0100 0010
052C   3481           01771         RETLW 0x81  ;43  1000 0001
052D   3400           01772         RETLW 0x00  ;44  0000 0000
                      01773  
                      01774  ;znak )   offset = 45
052E   3400           01775         RETLW 0x00  ;45  0000 0000
052F   3481           01776         RETLW 0x81  ;46  1000 0001
0530   3442           01777         RETLW 0x42  ;47  0100 0010
0531   343C           01778         RETLW 0x3C  ;48  0011 1100
0532   3400           01779         RETLW 0x00  ;49  0000 0000
                      01780  
                      01781  ;znak *   offset = 50
0533   3400           01782         RETLW 0x00  ;50  0000 0000
0534   3428           01783         RETLW 0x28  ;51  0010 1000
MPASM  5.47                   16F628ATMPO.ASM   1-25-2013  19:54:22         PAGE 35


LOC  OBJECT CODE     LINE SOURCE TEXT
  VALUE

0535   3410           01784         RETLW 0x10  ;52  0001 0000
0536   3428           01785         RETLW 0x28  ;53  0010 1000
0537   3400           01786         RETLW 0x00  ;54  0000 0000
                      01787  
                      01788  ;znak +   offset = 55
0538   3400           01789         RETLW 0x00  ;55  0000 0000
0539   3410           01790         RETLW 0x10  ;56  0001 0000
053A   3438           01791         RETLW 0x38  ;57  0011 1000
053B   3410           01792         RETLW 0x10  ;58  0001 0000
053C   3400           01793         RETLW 0x00  ;59  0000 0000
                      01794  
                      01795  ;znak ,   offset = 60
053D   3480           01796         RETLW 0x80  ;60  1000 0000
053E   3460           01797         RETLW 0x60  ;61  0110 0000
053F   3400           01798         RETLW 0x00  ;62  0000 0000
0540   3400           01799         RETLW 0x00  ;63  0000 0000
0541   3400           01800         RETLW 0x00  ;64  0000 0000
                      01801  
                      01802  ;znak -   offset = 65
0542   3400           01803         RETLW 0x00  ;65  0000 0000
0543   3410           01804         RETLW 0x10  ;66  0001 0000
0544   3410           01805         RETLW 0x10  ;67  0001 0000
0545   3410           01806         RETLW 0x10  ;68  0001 0000
0546   3400           01807         RETLW 0x00  ;69  0000 0000
                      01808  
                      01809  ;znak .   offset = 70
0547   3400           01810         RETLW 0x00  ;70  0000 0000
0548   3440           01811         RETLW 0x40  ;71  0100 0000
0549   3400           01812         RETLW 0x00  ;72  0000 0000
054A   3400           01813         RETLW 0x00  ;73  0000 0000
054B   3400           01814         RETLW 0x00  ;74  0000 0000
                      01815  
                      01816  ;znak /   offset = 75
054C   3440           01817         RETLW 0x40  ;75  0100 0000
054D   3420           01818         RETLW 0x20  ;76  0010 0000
054E   3410           01819         RETLW 0x10  ;77  0001 0000
054F   3408           01820         RETLW 0x08  ;78  0000 1000
0550   3404           01821         RETLW 0x04  ;79  0000 0100
                      01822  
                      01823  ;znak 0   offset = 80
0551   347C           01824         RETLW 0x7C  ;80  0111 1100
0552   34A2           01825         RETLW 0xA2  ;81  1010 0010
0553   3492           01826         RETLW 0x92  ;82  1001 0010
0554   348A           01827         RETLW 0x8A  ;83  1000 1010
0555   347C           01828         RETLW 0x7C  ;84  0111 1100
                      01829  
                      01830  ;znak 1   offset = 85
0556   3400           01831         RETLW 0x00  ;85  0000 0000
0557   3484           01832         RETLW 0x84  ;86  1000 0100
0558   34FE           01833         RETLW 0xFE  ;87  1111 1110
0559   3480           01834         RETLW 0x80  ;88  1000 0000
055A   3400           01835         RETLW 0x00  ;89  0000 0000
                      01836  
MPASM  5.47                   16F628ATMPO.ASM   1-25-2013  19:54:22         PAGE 36


LOC  OBJECT CODE     LINE SOURCE TEXT
  VALUE

                      01837  ;znak 2   offset = 90
055B   3484           01838         RETLW 0x84  ;90  1000 0100
055C   34C2           01839         RETLW 0xC2  ;91  1100 0010
055D   34A2           01840         RETLW 0xA2  ;92  1010 0010
055E   3492           01841         RETLW 0x92  ;93  1001 0010
055F   348C           01842         RETLW 0x8C  ;94  1000 1100
                      01843  
                      01844  ;znak 3   offset = 95
0560   3442           01845         RETLW 0x42  ;95  0100 0010
0561   3482           01846         RETLW 0x82  ;96  1000 0010
0562   348A           01847         RETLW 0x8A  ;97  1000 1010
0563   3496           01848         RETLW 0x96  ;98  1001 0110
0564   3462           01849         RETLW 0x62  ;99  0110 0010
                      01850  
                      01851  ;znak 4   offset = 100
0565   3430           01852         RETLW 0x30  ;100  0011 0000
0566   3428           01853         RETLW 0x28  ;101  0010 1000
0567   3424           01854         RETLW 0x24  ;102  0010 0100
0568   34FE           01855         RETLW 0xFE  ;103  1111 1110
0569   3420           01856         RETLW 0x20  ;104  0010 0000
                      01857  
                      01858  ;znak 5   offset = 105
056A   344E           01859         RETLW 0x4E  ;105  0100 1110
056B   348A           01860         RETLW 0x8A  ;106  1000 1010
056C   348A           01861         RETLW 0x8A  ;107  1000 1010
056D   348A           01862         RETLW 0x8A  ;108  1000 1010
056E   3472           01863         RETLW 0x72  ;109  0111 0010
                      01864  
                      01865  ;znak 6   offset = 110
056F   3478           01866         RETLW 0x78  ;110  0111 1000
0570   3494           01867         RETLW 0x94  ;111  1001 0100
0571   3492           01868         RETLW 0x92  ;112  1001 0010
0572   3492           01869         RETLW 0x92  ;113  1001 0010
0573   3460           01870         RETLW 0x60  ;114  0110 0000
                      01871  
                      01872  ;znak 7   offset = 115
0574   3402           01873         RETLW 0x02  ;115  0000 0010
0575   34E2           01874         RETLW 0xE2  ;116  1110 0010
0576   3412           01875         RETLW 0x12  ;117  0001 0010
0577   340A           01876         RETLW 0x0A  ;118  0000 1010
0578   3406           01877         RETLW 0x06  ;119  0000 0110
                      01878  
                      01879  ;znak 8   offset = 120
0579   346C           01880         RETLW 0x6C  ;120  0110 1100
057A   3492           01881         RETLW 0x92  ;121  1001 0010
057B   3492           01882         RETLW 0x92  ;122  1001 0010
057C   3492           01883         RETLW 0x92  ;123  1001 0010
057D   346C           01884         RETLW 0x6C  ;124  0110 1100
                      01885  
                      01886  ;znak 9   offset = 125
057E   340C           01887         RETLW 0x0C  ;125  0000 1100
057F   3492           01888         RETLW 0x92  ;126  1001 0010
0580   3492           01889         RETLW 0x92  ;127  1001 0010
MPASM  5.47                   16F628ATMPO.ASM   1-25-2013  19:54:22         PAGE 37


LOC  OBJECT CODE     LINE SOURCE TEXT
  VALUE

0581   3452           01890         RETLW 0x52  ;128  0101 0010
0582   343C           01891         RETLW 0x3C  ;129  0011 1100
                      01892  
                      01893  ;znak :   offset = 130
0583   3400           01894         RETLW 0x00  ;130  0000 0000
0584   3424           01895         RETLW 0x24  ;131  0010 0100
0585   3400           01896         RETLW 0x00  ;132  0000 0000
0586   3400           01897         RETLW 0x00  ;133  0000 0000
0587   3400           01898         RETLW 0x00  ;134  0000 0000
                      01899  
                      01900  ;znak ;   offset = 135
0588   3480           01901         RETLW 0x80  ;135  1000 0000
0589   3464           01902         RETLW 0x64  ;136  0110 0100
058A   3400           01903         RETLW 0x00  ;137  0000 0000
058B   3400           01904         RETLW 0x00  ;138  0000 0000
058C   3400           01905         RETLW 0x00  ;139  0000 0000
                      01906  
                      01907  ;znak <   offset = 140
058D   3410           01908         RETLW 0x10  ;140  0001 0000
058E   3428           01909         RETLW 0x28  ;141  0010 1000
058F   3444           01910         RETLW 0x44  ;142  0100 0100
0590   3482           01911         RETLW 0x82  ;143  1000 0010
0591   3400           01912         RETLW 0x00  ;144  0000 0000
                      01913  
                      01914  ;znak =   offset = 145
0592   3400           01915         RETLW 0x00  ;145  0000 0000
0593   3428           01916         RETLW 0x28  ;146  0010 1000
0594   3428           01917         RETLW 0x28  ;147  0010 1000
0595   3428           01918         RETLW 0x28  ;148  0010 1000
0596   3400           01919         RETLW 0x00  ;149  0000 0000
                      01920  
                      01921  ;znak >   offset = 150
0597   3400           01922         RETLW 0x00  ;150  0000 0000
0598   3482           01923         RETLW 0x82  ;151  1000 0010
0599   3444           01924         RETLW 0x44  ;152  0100 0100
059A   3428           01925         RETLW 0x28  ;153  0010 1000
059B   3410           01926         RETLW 0x10  ;154  0001 0000
                      01927  
                      01928  ;znak ?   offset = 155
059C   3404           01929         RETLW 0x04  ;155  0000 0100
059D   34A2           01930         RETLW 0xA2  ;156  1010 0010
059E   3412           01931         RETLW 0x12  ;157  0001 0010
059F   340C           01932         RETLW 0x0C  ;158  0000 1100
05A0   3400           01933         RETLW 0x00  ;159  0000 0000
                      01934  
                      01935  ;znak @   offset = 160
05A1   3464           01936         RETLW 0x64  ;160  0110 0100
05A2   3492           01937         RETLW 0x92  ;161  1001 0010
05A3   34F2           01938         RETLW 0xF2  ;162  1111 0010
05A4   3482           01939         RETLW 0x82  ;163  1000 0010
05A5   347C           01940         RETLW 0x7C  ;164  0111 1100
                      01941  
                      01942  ;znak A   offset = 165
MPASM  5.47                   16F628ATMPO.ASM   1-25-2013  19:54:22         PAGE 38


LOC  OBJECT CODE     LINE SOURCE TEXT
  VALUE

05A6   34FC           01943         RETLW 0xFC  ;165  1111 1100
05A7   3422           01944         RETLW 0x22  ;166  0010 0010
05A8   3422           01945         RETLW 0x22  ;167  0010 0010
05A9   3422           01946         RETLW 0x22  ;168  0010 0010
05AA   34FC           01947         RETLW 0xFC  ;169  1111 1100
                      01948  
                      01949  ;znak B   offset = 170
05AB   34FE           01950         RETLW 0xFE  ;170  1111 1110
05AC   3492           01951         RETLW 0x92  ;171  1001 0010
05AD   3492           01952         RETLW 0x92  ;172  1001 0010
05AE   3492           01953         RETLW 0x92  ;173  1001 0010
05AF   346C           01954         RETLW 0x6C  ;174  0110 1100
                      01955  
                      01956  ;znak C   offset = 175
05B0   347C           01957         RETLW 0x7C  ;175  0111 1100
05B1   3482           01958         RETLW 0x82  ;176  1000 0010
05B2   3482           01959         RETLW 0x82  ;177  1000 0010
05B3   3482           01960         RETLW 0x82  ;178  1000 0010
05B4   3444           01961         RETLW 0x44  ;179  0100 0100
                      01962  
                      01963  ;znak D   offset = 180
05B5   34FE           01964         RETLW 0xFE  ;180  1111 1110
05B6   3482           01965         RETLW 0x82  ;181  1000 0010
05B7   3482           01966         RETLW 0x82  ;182  1000 0010
05B8   3444           01967         RETLW 0x44  ;183  0100 0100
05B9   3438           01968         RETLW 0x38  ;184  0011 1000
                      01969  
                      01970  ;znak E   offset = 185
05BA   34FE           01971         RETLW 0xFE  ;185  1111 1110
05BB   3492           01972         RETLW 0x92  ;186  1001 0010
05BC   3492           01973         RETLW 0x92  ;187  1001 0010
05BD   3492           01974         RETLW 0x92  ;188  1001 0010
05BE   3482           01975         RETLW 0x82  ;189  1000 0010
                      01976  
                      01977  ;znak F   offset = 190
05BF   34FE           01978         RETLW 0xFE  ;190  1111 1110
05C0   3412           01979         RETLW 0x12  ;191  0001 0010
05C1   3412           01980         RETLW 0x12  ;192  0001 0010
05C2   3412           01981         RETLW 0x12  ;193  0001 0010
05C3   3402           01982         RETLW 0x02  ;194  0000 0010
                      01983  
                      01984  ;znak G   offset = 195
05C4   347C           01985         RETLW 0x7C  ;195  0111 1100
05C5   3482           01986         RETLW 0x82  ;196  1000 0010
05C6   3492           01987         RETLW 0x92  ;197  1001 0010
05C7   3492           01988         RETLW 0x92  ;198  1001 0010
05C8   34F4           01989         RETLW 0xF4  ;199  1111 0100
                      01990  
                      01991  ;znak H   offset = 200
05C9   34FE           01992         RETLW 0xFE  ;200  1111 1110
05CA   3410           01993         RETLW 0x10  ;201  0001 0000
05CB   3410           01994         RETLW 0x10  ;202  0001 0000
05CC   3410           01995         RETLW 0x10  ;203  0001 0000
MPASM  5.47                   16F628ATMPO.ASM   1-25-2013  19:54:22         PAGE 39


LOC  OBJECT CODE     LINE SOURCE TEXT
  VALUE

05CD   34FE           01996         RETLW 0xFE  ;204  1111 1110
                      01997  
                      01998  ;znak I   offset = 205
05CE   3400           01999         RETLW 0x00  ;205  0000 0000
05CF   3482           02000         RETLW 0x82  ;206  1000 0010
05D0   34FE           02001         RETLW 0xFE  ;207  1111 1110
05D1   3482           02002         RETLW 0x82  ;208  1000 0010
05D2   3400           02003         RETLW 0x00  ;209  0000 0000
                      02004  
                      02005  ;znak J   offset = 210
05D3   3440           02006         RETLW 0x40  ;210  0100 0000
05D4   3480           02007         RETLW 0x80  ;211  1000 0000
05D5   3482           02008         RETLW 0x82  ;212  1000 0010
05D6   347E           02009         RETLW 0x7E  ;213  0111 1110
05D7   3402           02010         RETLW 0x02  ;214  0000 0010
                      02011  
                      02012  ;znak K   offset = 215
05D8   34FE           02013         RETLW 0xFE  ;215  1111 1110
05D9   3410           02014         RETLW 0x10  ;216  0001 0000
05DA   3428           02015         RETLW 0x28  ;217  0010 1000
05DB   3444           02016         RETLW 0x44  ;218  0100 0100
05DC   3482           02017         RETLW 0x82  ;219  1000 0010
                      02018  
                      02019  ;znak L   offset = 220
05DD   34FE           02020         RETLW 0xFE  ;220  1111 1110
05DE   3480           02021         RETLW 0x80  ;221  1000 0000
05DF   3480           02022         RETLW 0x80  ;222  1000 0000
05E0   3480           02023         RETLW 0x80  ;223  1000 0000
05E1   3480           02024         RETLW 0x80  ;224  1000 0000
                      02025  
                      02026  ;znak M   offset = 225
05E2   34FE           02027         RETLW 0xFE  ;225  1111 1110
05E3   3404           02028         RETLW 0x04  ;226  0000 0100
05E4   3418           02029         RETLW 0x18  ;227  0001 1000
05E5   3404           02030         RETLW 0x04  ;228  0000 0100
05E6   34FE           02031         RETLW 0xFE  ;229  1111 1110
                      02032  
                      02033  ;znak N   offset = 230
05E7   34FE           02034         RETLW 0xFE  ;230  1111 1110
05E8   3408           02035         RETLW 0x08  ;231  0000 1000
05E9   3410           02036         RETLW 0x10  ;232  0001 0000
05EA   3420           02037         RETLW 0x20  ;233  0010 0000
05EB   34FE           02038         RETLW 0xFE  ;234  1111 1110
                      02039  
                      02040  ;znak O   offset = 235
05EC   347C           02041         RETLW 0x7C  ;235  0111 1100
05ED   3482           02042         RETLW 0x82  ;236  1000 0010
05EE   3482           02043         RETLW 0x82  ;237  1000 0010
05EF   3482           02044         RETLW 0x82  ;238  1000 0010
05F0   347C           02045         RETLW 0x7C  ;239  0111 1100
                      02046  
                      02047  ;znak P   offset = 240
05F1   34FE           02048         RETLW 0xFE  ;240  1111 1110
MPASM  5.47                   16F628ATMPO.ASM   1-25-2013  19:54:22         PAGE 40


LOC  OBJECT CODE     LINE SOURCE TEXT
  VALUE

05F2   3412           02049         RETLW 0x12  ;241  0001 0010
05F3   3412           02050         RETLW 0x12  ;242  0001 0010
05F4   3412           02051         RETLW 0x12  ;243  0001 0010
05F5   340C           02052         RETLW 0x0C  ;244  0000 1100
                      02053  
                      02054  ;znak Q   offset = 245
05F6   347C           02055         RETLW 0x7C  ;245  0111 1100
05F7   3482           02056         RETLW 0x82  ;246  1000 0010
05F8   34A2           02057         RETLW 0xA2  ;247  1010 0010
05F9   3442           02058         RETLW 0x42  ;248  0100 0010
05FA   34BC           02059         RETLW 0xBC  ;249  1011 1100
                      02060  
                      02061  ;znak R   offset = 250
05FB   34FE           02062         RETLW 0xFE  ;250  1111 1110
05FC   3412           02063         RETLW 0x12  ;251  0001 0010
05FD   3432           02064         RETLW 0x32  ;252  0011 0010
05FE   3452           02065         RETLW 0x52  ;253  0101 0010
05FF   348C           02066         RETLW 0x8C  ;254  1000 1100
                      02067  
                      02068 
                      02069 Vyber_z_tabulky2 ORG 0x04E8;0x03BD
04E8   3E01           02070                 ADDLW 0x01
04E9   00??           02071                 MOVWF adress_offset ;uloz W do adress_offset
04EA   30??           02072                 MOVLW LOW Tabulka2 ;W = low 8 bitov z adresy
04EB   07??           02073                 ADDWF adress_offset,F
04EC   30??           02074                 MOVLW HIGH Tabulka2 ;W = high 8 bitov z adresy
04ED   1803           02075                 BTFSC STATUS,C ;PAGE CROSSED?
04EE   3E01           02076                 ADDLW 0x01 ;ak ano tak W = W + 1
04EF   008A           02077                 MOVWF PCLATH ;nahraj high adress to latch
04F0   08??           02078                 MOVF  adress_offset, W
04F1   2???           02079                 CALL  Tabulka2                                                          
                      02080 
04F2   0008           02081                 RETURN
                      02082 
                      02083 Tabulka2 ORG 0x0600
                      02084 ;vstupna adresa je vo W registre
                      02085                 ;ADDWF PCL,F
0600   0082           02086                 MOVWF PCL
                      02087  ;znak S   offset = 0
0601   348C           02088         RETLW 0x8C  ;0  1000 1100
0602   3492           02089         RETLW 0x92  ;1  1001 0010
0603   3492           02090         RETLW 0x92  ;2  1001 0010
0604   3492           02091         RETLW 0x92  ;3  1001 0010
0605   3462           02092         RETLW 0x62  ;4  0110 0010
                      02093  
                      02094  ;znak T   offset = 5
0606   3402           02095         RETLW 0x02  ;5  0000 0010
0607   3402           02096         RETLW 0x02  ;6  0000 0010
0608   34FE           02097         RETLW 0xFE  ;7  1111 1110
0609   3402           02098         RETLW 0x02  ;8  0000 0010
060A   3402           02099         RETLW 0x02  ;9  0000 0010
                      02100  
                      02101  ;znak U   offset = 10
MPASM  5.47                   16F628ATMPO.ASM   1-25-2013  19:54:22         PAGE 41


LOC  OBJECT CODE     LINE SOURCE TEXT
  VALUE

060B   347E           02102         RETLW 0x7E  ;10  0111 1110
060C   3480           02103         RETLW 0x80  ;11  1000 0000
060D   3480           02104         RETLW 0x80  ;12  1000 0000
060E   3480           02105         RETLW 0x80  ;13  1000 0000
060F   347E           02106         RETLW 0x7E  ;14  0111 1110
                      02107  
                      02108  ;znak V   offset = 15
0610   343E           02109         RETLW 0x3E  ;15  0011 1110
0611   3440           02110         RETLW 0x40  ;16  0100 0000
0612   3480           02111         RETLW 0x80  ;17  1000 0000
0613   3440           02112         RETLW 0x40  ;18  0100 0000
0614   343E           02113         RETLW 0x3E  ;19  0011 1110
                      02114  
                      02115  ;znak W   offset = 20
0615   347E           02116         RETLW 0x7E  ;20  0111 1110
0616   3480           02117         RETLW 0x80  ;21  1000 0000
0617   3470           02118         RETLW 0x70  ;22  0111 0000
0618   3480           02119         RETLW 0x80  ;23  1000 0000
0619   347E           02120         RETLW 0x7E  ;24  0111 1110
                      02121  
                      02122  ;znak X   offset = 25
061A   34C6           02123         RETLW 0xC6  ;25  1100 0110
061B   3428           02124         RETLW 0x28  ;26  0010 1000
061C   3410           02125         RETLW 0x10  ;27  0001 0000
061D   3428           02126         RETLW 0x28  ;28  0010 1000
061E   34C6           02127         RETLW 0xC6  ;29  1100 0110
                      02128  
                      02129  ;znak Y   offset = 30
061F   340E           02130         RETLW 0x0E  ;30  0000 1110
0620   3410           02131         RETLW 0x10  ;31  0001 0000
0621   34E0           02132         RETLW 0xE0  ;32  1110 0000
0622   3410           02133         RETLW 0x10  ;33  0001 0000
0623   340E           02134         RETLW 0x0E  ;34  0000 1110
                      02135  
                      02136  ;znak Z   offset = 35
0624   34C2           02137         RETLW 0xC2  ;35  1100 0010
0625   34A2           02138         RETLW 0xA2  ;36  1010 0010
0626   3492           02139         RETLW 0x92  ;37  1001 0010
0627   348A           02140         RETLW 0x8A  ;38  1000 1010
0628   3486           02141         RETLW 0x86  ;39  1000 0110
                      02142  
                      02143  ;znak [   offset = 40
0629   3400           02144         RETLW 0x00  ;40  0000 0000
062A   34FE           02145         RETLW 0xFE  ;41  1111 1110
062B   3482           02146         RETLW 0x82  ;42  1000 0010
062C   3482           02147         RETLW 0x82  ;43  1000 0010
062D   3400           02148         RETLW 0x00  ;44  0000 0000
                      02149  
                      02150  ;znak \   offset = 45
062E   3404           02151         RETLW 0x04  ;45  0000 0100
062F   3408           02152         RETLW 0x08  ;46  0000 1000
0630   3410           02153         RETLW 0x10  ;47  0001 0000
0631   3420           02154         RETLW 0x20  ;48  0010 0000
MPASM  5.47                   16F628ATMPO.ASM   1-25-2013  19:54:22         PAGE 42


LOC  OBJECT CODE     LINE SOURCE TEXT
  VALUE

0632   3440           02155         RETLW 0x40  ;49  0100 0000
                      02156  
                      02157  ;znak ]   offset = 50
0633   3400           02158         RETLW 0x00  ;50  0000 0000
0634   3482           02159         RETLW 0x82  ;51  1000 0010
0635   3482           02160         RETLW 0x82  ;52  1000 0010
0636   34FE           02161         RETLW 0xFE  ;53  1111 1110
0637   3400           02162         RETLW 0x00  ;54  0000 0000
                      02163  
                      02164  ;znak ^   offset = 55
0638   3408           02165         RETLW 0x08  ;55  0000 1000
0639   3404           02166         RETLW 0x04  ;56  0000 0100
063A   3402           02167         RETLW 0x02  ;57  0000 0010
063B   3404           02168         RETLW 0x04  ;58  0000 0100
063C   3408           02169         RETLW 0x08  ;59  0000 1000
                      02170  
                      02171  ;znak _   offset = 60
063D   3480           02172         RETLW 0x80  ;60  1000 0000
063E   3480           02173         RETLW 0x80  ;61  1000 0000
063F   3480           02174         RETLW 0x80  ;62  1000 0000
0640   3480           02175         RETLW 0x80  ;63  1000 0000
0641   3480           02176         RETLW 0x80  ;64  1000 0000
                      02177  
                      02178  ;znak `   offset = 65
0642   3400           02179         RETLW 0x00  ;65  0000 0000
0643   3402           02180         RETLW 0x02  ;66  0000 0010
0644   3404           02181         RETLW 0x04  ;67  0000 0100
0645   3408           02182         RETLW 0x08  ;68  0000 1000
0646   3400           02183         RETLW 0x00  ;69  0000 0000
                      02184  
                      02185  ;znak a   offset = 70
0647   3440           02186         RETLW 0x40  ;70  0100 0000
0648   34A8           02187         RETLW 0xA8  ;71  1010 1000
0649   34A8           02188         RETLW 0xA8  ;72  1010 1000
064A   34A8           02189         RETLW 0xA8  ;73  1010 1000
064B   34F0           02190         RETLW 0xF0  ;74  1111 0000
                      02191  
                      02192  ;znak b   offset = 75
064C   34FE           02193         RETLW 0xFE  ;75  1111 1110
064D   3490           02194         RETLW 0x90  ;76  1001 0000
064E   3488           02195         RETLW 0x88  ;77  1000 1000
064F   3488           02196         RETLW 0x88  ;78  1000 1000
0650   3470           02197         RETLW 0x70  ;79  0111 0000
                      02198  
                      02199  ;znak c   offset = 80
0651   3470           02200         RETLW 0x70  ;80  0111 0000
0652   3488           02201         RETLW 0x88  ;81  1000 1000
0653   3488           02202         RETLW 0x88  ;82  1000 1000
0654   3488           02203         RETLW 0x88  ;83  1000 1000
0655   3440           02204         RETLW 0x40  ;84  0100 0000
                      02205  
                      02206  ;znak d   offset = 85
0656   3470           02207         RETLW 0x70  ;85  0111 0000
MPASM  5.47                   16F628ATMPO.ASM   1-25-2013  19:54:22         PAGE 43


LOC  OBJECT CODE     LINE SOURCE TEXT
  VALUE

0657   3488           02208         RETLW 0x88  ;86  1000 1000
0658   3488           02209         RETLW 0x88  ;87  1000 1000
0659   3490           02210         RETLW 0x90  ;88  1001 0000
065A   34FE           02211         RETLW 0xFE  ;89  1111 1110
                      02212  
                      02213  ;znak e   offset = 90
065B   3470           02214         RETLW 0x70  ;90  0111 0000
065C   34A8           02215         RETLW 0xA8  ;91  1010 1000
065D   34A8           02216         RETLW 0xA8  ;92  1010 1000
065E   34A8           02217         RETLW 0xA8  ;93  1010 1000
065F   3430           02218         RETLW 0x30  ;94  0011 0000
                      02219  
                      02220  ;znak f   offset = 95
0660   3410           02221         RETLW 0x10  ;95  0001 0000
0661   34FC           02222         RETLW 0xFC  ;96  1111 1100
0662   3412           02223         RETLW 0x12  ;97  0001 0010
0663   3402           02224         RETLW 0x02  ;98  0000 0010
0664   3404           02225         RETLW 0x04  ;99  0000 0100
                      02226  
                      02227  ;znak g   offset = 100
0665   3418           02228         RETLW 0x18  ;100  0001 1000
0666   34A4           02229         RETLW 0xA4  ;101  1010 0100
0667   34A4           02230         RETLW 0xA4  ;102  1010 0100
0668   34A4           02231         RETLW 0xA4  ;103  1010 0100
0669   347C           02232         RETLW 0x7C  ;104  0111 1100
                      02233  
                      02234  ;znak h   offset = 105
066A   34FE           02235         RETLW 0xFE  ;105  1111 1110
066B   3410           02236         RETLW 0x10  ;106  0001 0000
066C   3408           02237         RETLW 0x08  ;107  0000 1000
066D   3408           02238         RETLW 0x08  ;108  0000 1000
066E   34F0           02239         RETLW 0xF0  ;109  1111 0000
                      02240  
                      02241  ;znak i   offset = 110
066F   3400           02242         RETLW 0x00  ;110  0000 0000
0670   3488           02243         RETLW 0x88  ;111  1000 1000
0671   34FA           02244         RETLW 0xFA  ;112  1111 1010
0672   3480           02245         RETLW 0x80  ;113  1000 0000
0673   3400           02246         RETLW 0x00  ;114  0000 0000
                      02247  
                      02248  ;znak j   offset = 115
0674   3440           02249         RETLW 0x40  ;115  0100 0000
0675   3480           02250         RETLW 0x80  ;116  1000 0000
0676   3488           02251         RETLW 0x88  ;117  1000 1000
0677   347A           02252         RETLW 0x7A  ;118  0111 1010
0678   3400           02253         RETLW 0x00  ;119  0000 0000
                      02254  
                      02255  ;znak k   offset = 120
0679   34FE           02256         RETLW 0xFE  ;120  1111 1110
067A   3420           02257         RETLW 0x20  ;121  0010 0000
067B   3450           02258         RETLW 0x50  ;122  0101 0000
067C   3488           02259         RETLW 0x88  ;123  1000 1000
067D   3400           02260         RETLW 0x00  ;124  0000 0000
MPASM  5.47                   16F628ATMPO.ASM   1-25-2013  19:54:22         PAGE 44


LOC  OBJECT CODE     LINE SOURCE TEXT
  VALUE

                      02261  
                      02262  ;znak l   offset = 125
067E   3400           02263         RETLW 0x00  ;125  0000 0000
067F   3482           02264         RETLW 0x82  ;126  1000 0010
0680   34FE           02265         RETLW 0xFE  ;127  1111 1110
0681   3480           02266         RETLW 0x80  ;128  1000 0000
0682   3400           02267         RETLW 0x00  ;129  0000 0000
                      02268  
                      02269  ;znak m   offset = 130
0683   34F8           02270         RETLW 0xF8  ;130  1111 1000
0684   3408           02271         RETLW 0x08  ;131  0000 1000
0685   3430           02272         RETLW 0x30  ;132  0011 0000
0686   3408           02273         RETLW 0x08  ;133  0000 1000
0687   34F0           02274         RETLW 0xF0  ;134  1111 0000
                      02275  
                      02276  ;znak n   offset = 135
0688   34F8           02277         RETLW 0xF8  ;135  1111 1000
0689   3410           02278         RETLW 0x10  ;136  0001 0000
068A   3408           02279         RETLW 0x08  ;137  0000 1000
068B   3408           02280         RETLW 0x08  ;138  0000 1000
068C   34F0           02281         RETLW 0xF0  ;139  1111 0000
                      02282  
                      02283  ;znak o   offset = 140
068D   3470           02284         RETLW 0x70  ;140  0111 0000
068E   3488           02285         RETLW 0x88  ;141  1000 1000
068F   3488           02286         RETLW 0x88  ;142  1000 1000
0690   3488           02287         RETLW 0x88  ;143  1000 1000
0691   3470           02288         RETLW 0x70  ;144  0111 0000
                      02289  
                      02290  ;znak p   offset = 145
0692   34F8           02291         RETLW 0xF8  ;145  1111 1000
0693   3428           02292         RETLW 0x28  ;146  0010 1000
0694   3428           02293         RETLW 0x28  ;147  0010 1000
0695   3428           02294         RETLW 0x28  ;148  0010 1000
0696   3410           02295         RETLW 0x10  ;149  0001 0000
                      02296  
                      02297  ;znak q   offset = 150
0697   3410           02298         RETLW 0x10  ;150  0001 0000
0698   3428           02299         RETLW 0x28  ;151  0010 1000
0699   3428           02300         RETLW 0x28  ;152  0010 1000
069A   3430           02301         RETLW 0x30  ;153  0011 0000
069B   34F8           02302         RETLW 0xF8  ;154  1111 1000
                      02303  
                      02304  ;znak r   offset = 155
069C   34F8           02305         RETLW 0xF8  ;155  1111 1000
069D   3410           02306         RETLW 0x10  ;156  0001 0000
069E   3408           02307         RETLW 0x08  ;157  0000 1000
069F   3408           02308         RETLW 0x08  ;158  0000 1000
06A0   3410           02309         RETLW 0x10  ;159  0001 0000
                      02310  
                      02311  ;znak s   offset = 160
06A1   3490           02312         RETLW 0x90  ;160  1001 0000
06A2   34A8           02313         RETLW 0xA8  ;161  1010 1000
MPASM  5.47                   16F628ATMPO.ASM   1-25-2013  19:54:22         PAGE 45


LOC  OBJECT CODE     LINE SOURCE TEXT
  VALUE

06A3   34A8           02314         RETLW 0xA8  ;162  1010 1000
06A4   34A8           02315         RETLW 0xA8  ;163  1010 1000
06A5   3440           02316         RETLW 0x40  ;164  0100 0000
                      02317  
                      02318  ;znak t   offset = 165
06A6   3408           02319         RETLW 0x08  ;165  0000 1000
06A7   347E           02320         RETLW 0x7E  ;166  0111 1110
06A8   3488           02321         RETLW 0x88  ;167  1000 1000
06A9   3480           02322         RETLW 0x80  ;168  1000 0000
06AA   3440           02323         RETLW 0x40  ;169  0100 0000
                      02324  
                      02325  ;znak u   offset = 170
06AB   3478           02326         RETLW 0x78  ;170  0111 1000
06AC   3480           02327         RETLW 0x80  ;171  1000 0000
06AD   3480           02328         RETLW 0x80  ;172  1000 0000
06AE   3440           02329         RETLW 0x40  ;173  0100 0000
06AF   34F8           02330         RETLW 0xF8  ;174  1111 1000
                      02331  
                      02332  ;znak v   offset = 175
06B0   3438           02333         RETLW 0x38  ;175  0011 1000
06B1   3440           02334         RETLW 0x40  ;176  0100 0000
06B2   3480           02335         RETLW 0x80  ;177  1000 0000
06B3   3440           02336         RETLW 0x40  ;178  0100 0000
06B4   3438           02337         RETLW 0x38  ;179  0011 1000
                      02338  
                      02339  ;znak w   offset = 180
06B5   3478           02340         RETLW 0x78  ;180  0111 1000
06B6   3480           02341         RETLW 0x80  ;181  1000 0000
06B7   3460           02342         RETLW 0x60  ;182  0110 0000
06B8   3480           02343         RETLW 0x80  ;183  1000 0000
06B9   3478           02344         RETLW 0x78  ;184  0111 1000
                      02345  
                      02346  ;znak x   offset = 185
06BA   3488           02347         RETLW 0x88  ;185  1000 1000
06BB   3450           02348         RETLW 0x50  ;186  0101 0000
06BC   3420           02349         RETLW 0x20  ;187  0010 0000
06BD   3450           02350         RETLW 0x50  ;188  0101 0000
06BE   3488           02351         RETLW 0x88  ;189  1000 1000
                      02352  
                      02353  ;znak y   offset = 190
06BF   3418           02354         RETLW 0x18  ;190  0001 1000
06C0   34A0           02355         RETLW 0xA0  ;191  1010 0000
06C1   34A0           02356         RETLW 0xA0  ;192  1010 0000
06C2   34A0           02357         RETLW 0xA0  ;193  1010 0000
06C3   3478           02358         RETLW 0x78  ;194  0111 1000
                      02359  
                      02360  ;znak z   offset = 195
06C4   3488           02361         RETLW 0x88  ;195  1000 1000
06C5   34C8           02362         RETLW 0xC8  ;196  1100 1000
06C6   34A8           02363         RETLW 0xA8  ;197  1010 1000
06C7   3498           02364         RETLW 0x98  ;198  1001 1000
06C8   3488           02365         RETLW 0x88  ;199  1000 1000
                      02366  
MPASM  5.47                   16F628ATMPO.ASM   1-25-2013  19:54:22         PAGE 46


LOC  OBJECT CODE     LINE SOURCE TEXT
  VALUE

                      02367  ;znak {   offset = 200
06C9   3400           02368         RETLW 0x00  ;200  0000 0000
06CA   3410           02369         RETLW 0x10  ;201  0001 0000
06CB   346C           02370         RETLW 0x6C  ;202  0110 1100
06CC   3482           02371         RETLW 0x82  ;203  1000 0010
06CD   3400           02372         RETLW 0x00  ;204  0000 0000
                      02373  
                      02374  ;znak |   offset = 205
06CE   3400           02375         RETLW 0x00  ;205  0000 0000
06CF   3400           02376         RETLW 0x00  ;206  0000 0000
06D0   34FE           02377         RETLW 0xFE  ;207  1111 1110
06D1   3400           02378         RETLW 0x00  ;208  0000 0000
06D2   3400           02379         RETLW 0x00  ;209  0000 0000
                      02380  
                      02381  ;znak }   offset = 210
06D3   3400           02382         RETLW 0x00  ;210  0000 0000
06D4   3482           02383         RETLW 0x82  ;211  1000 0010
06D5   346C           02384         RETLW 0x6C  ;212  0110 1100
06D6   3410           02385         RETLW 0x10  ;213  0001 0000
06D7   3400           02386         RETLW 0x00  ;214  0000 0000
                      02387  
                      02388  ;znak ,   offset = 215
06D8   3480           02389         RETLW 0x80  ;215  1000 0000
06D9   3460           02390         RETLW 0x60  ;216  0110 0000
06DA   3400           02391         RETLW 0x00  ;217  0000 0000
06DB   3400           02392         RETLW 0x00  ;218  0000 0000
06DC   3400           02393         RETLW 0x00  ;219  0000 0000
                      02394  
                      02395  ;znak .   offset = 220
06DD   3400           02396         RETLW 0x00  ;220  0000 0000
06DE   3480           02397         RETLW 0x80  ;221  1000 0000
06DF   3400           02398         RETLW 0x00  ;222  0000 0000
06E0   3400           02399         RETLW 0x00  ;223  0000 0000
06E1   3400           02400         RETLW 0x00  ;224  0000 0000
                      02401  
                      02402  ;znak Ñ   offset = 225
06E2   3480           02403         RETLW 0x80  ;225  1000 0000
06E3   3460           02404         RETLW 0x60  ;226  0110 0000
06E4   3400           02405         RETLW 0x00  ;227  0000 0000
06E5   3480           02406         RETLW 0x80  ;228  1000 0000
06E6   3460           02407         RETLW 0x60  ;229  0110 0000
                      02408  
                      02409  ;znak ä   offset = 230
06E7   3448           02410         RETLW 0x48  ;230  0100 1000
06E8   3495           02411         RETLW 0x95  ;231  1001 0101
06E9   3496           02412         RETLW 0x96  ;232  1001 0110
06EA   3495           02413         RETLW 0x95  ;233  1001 0101
06EB   3460           02414         RETLW 0x60  ;234  0110 0000
                      02415  
                      02416  ;znak ç   offset = 235
06EC   3404           02417         RETLW 0x04  ;235  0000 0100
06ED   3405           02418         RETLW 0x05  ;236  0000 0101
06EE   34FE           02419         RETLW 0xFE  ;237  1111 1110
MPASM  5.47                   16F628ATMPO.ASM   1-25-2013  19:54:22         PAGE 47


LOC  OBJECT CODE     LINE SOURCE TEXT
  VALUE

06EF   3405           02420         RETLW 0x05  ;238  0000 0101
06F0   3404           02421         RETLW 0x04  ;239  0000 0100
                      02422  
                      02423  ;znak é   offset = 240
06F1   3488           02424         RETLW 0x88  ;240  1000 1000
06F2   34C9           02425         RETLW 0xC9  ;241  1100 1001
06F3   34AA           02426         RETLW 0xAA  ;242  1010 1010
06F4   3499           02427         RETLW 0x99  ;243  1001 1001
06F5   3488           02428         RETLW 0x88  ;244  1000 1000
                      02429  
                      02430  ;znak ö   offset = 245
06F6   3410           02431         RETLW 0x10  ;245  0001 0000
06F7   34AA           02432         RETLW 0xAA  ;246  1010 1010
06F8   34AC           02433         RETLW 0xAC  ;247  1010 1100
06F9   34AA           02434         RETLW 0xAA  ;248  1010 1010
06FA   3440           02435         RETLW 0x40  ;249  0100 0000
                      02436  
                      02437  ;znak ù   offset = 250
06FB   3408           02438         RETLW 0x08  ;250  0000 1000
06FC   347E           02439         RETLW 0x7E  ;251  0111 1110
06FD   3489           02440         RETLW 0x89  ;252  1000 1001
06FE   3482           02441         RETLW 0x82  ;253  1000 0010
06FF   3441           02442         RETLW 0x41  ;254  0100 0001
                      02443  
                      02444 
                      02445 Vyber_z_tabulky3 ORG 0x03F6
03F6   3E01           02446                 ADDLW 0x01
03F7   00??           02447                 MOVWF adress_offset ;uloz W do adress_offset
03F8   30??           02448                 MOVLW LOW Tabulka3 ;W = low 8 bitov z adresy
03F9   07??           02449                 ADDWF adress_offset,F
03FA   30??           02450                 MOVLW HIGH Tabulka3 ;W = high 8 bitov z adresy
03FB   1803           02451                 BTFSC STATUS,C ;PAGE CROSSED?
03FC   3E01           02452                 ADDLW 0x01 ;ak ano tak W = W + 1
03FD   008A           02453                 MOVWF PCLATH ;nahraj high adress to latch
03FE   08??           02454                 MOVF  adress_offset, W
03FF   2???           02455                 CALL  Tabulka3                                                          
                      02456 
0400   0008           02457                 RETURN
                      02458 
                      02459 Tabulka3 ORG 0x0700
                      02460 ;vstupna adresa je vo W registre
                      02461                 ;ADDWF PCL,F
0700   0082           02462                 MOVWF PCL
                      02463  ;znak û   offset = 0
0701   3490           02464         RETLW 0x90  ;0  1001 0000
0702   34D2           02465         RETLW 0xD2  ;1  1101 0010
0703   34B4           02466         RETLW 0xB4  ;2  1011 0100
0704   3492           02467         RETLW 0x92  ;3  1001 0010
0705   3480           02468         RETLW 0x80  ;4  1000 0000
                      02469  
                      02470  ;znak °   offset = 5
0706   3400           02471         RETLW 0x00  ;5  0000 0000
0707   3402           02472         RETLW 0x02  ;6  0000 0010
MPASM  5.47                   16F628ATMPO.ASM   1-25-2013  19:54:22         PAGE 48


LOC  OBJECT CODE     LINE SOURCE TEXT
  VALUE

0708   3404           02473         RETLW 0x04  ;7  0000 0100
0709   3402           02474         RETLW 0x02  ;8  0000 0010
070A   3400           02475         RETLW 0x00  ;9  0000 0000
                      02476  
                      02477  ;znak ß   offset = 10
070B   344C           02478         RETLW 0x4C  ;10  0100 1100
070C   3496           02479         RETLW 0x96  ;11  1001 0110
070D   34AA           02480         RETLW 0xAA  ;12  1010 1010
070E   34D2           02481         RETLW 0xD2  ;13  1101 0010
070F   3464           02482         RETLW 0x64  ;14  0110 0100
                      02483  
                      02484  ;znak ∞   offset = 15
0710   3400           02485         RETLW 0x00  ;15  0000 0000
0711   3404           02486         RETLW 0x04  ;16  0000 0100
0712   340A           02487         RETLW 0x0A  ;17  0000 1010
0713   3404           02488         RETLW 0x04  ;18  0000 0100
0714   3400           02489         RETLW 0x00  ;19  0000 0000
                      02490  
                      02491  ;znak º   offset = 20
0715   34FE           02492         RETLW 0xFE  ;20  1111 1110
0716   3480           02493         RETLW 0x80  ;21  1000 0000
0717   3482           02494         RETLW 0x82  ;22  1000 0010
0718   3484           02495         RETLW 0x84  ;23  1000 0100
0719   3482           02496         RETLW 0x82  ;24  1000 0010
                      02497  
                      02498  ;znak æ   offset = 25
071A   3484           02499         RETLW 0x84  ;25  1000 0100
071B   34FC           02500         RETLW 0xFC  ;26  1111 1100
071C   3482           02501         RETLW 0x82  ;27  1000 0010
071D   3404           02502         RETLW 0x04  ;28  0000 0100
071E   3402           02503         RETLW 0x02  ;29  0000 0010
                      02504  
                      02505  ;znak ¿   offset = 30
071F   34FC           02506         RETLW 0xFC  ;30  1111 1100
0720   3414           02507         RETLW 0x14  ;31  0001 0100
0721   3434           02508         RETLW 0x34  ;32  0011 0100
0722   3456           02509         RETLW 0x56  ;33  0101 0110
0723   3489           02510         RETLW 0x89  ;34  1000 1001
                      02511  
                      02512  ;znak ¡   offset = 35
0724   34F0           02513         RETLW 0xF0  ;35  1111 0000
0725   3428           02514         RETLW 0x28  ;36  0010 1000
0726   3428           02515         RETLW 0x28  ;37  0010 1000
0727   342A           02516         RETLW 0x2A  ;38  0010 1010
0728   34F1           02517         RETLW 0xF1  ;39  1111 0001
                      02518  
                      02519  ;znak ƒ   offset = 40
0729   34F0           02520         RETLW 0xF0  ;40  1111 0000
072A   3429           02521         RETLW 0x29  ;41  0010 1001
072B   3424           02522         RETLW 0x24  ;42  0010 0100
072C   3429           02523         RETLW 0x29  ;43  0010 1001
072D   34F0           02524         RETLW 0xF0  ;44  1111 0000
                      02525  
MPASM  5.47                   16F628ATMPO.ASM   1-25-2013  19:54:22         PAGE 49


LOC  OBJECT CODE     LINE SOURCE TEXT
  VALUE

                      02526  ;znak ≈   offset = 45
072E   34FE           02527         RETLW 0xFE  ;45  1111 1110
072F   3480           02528         RETLW 0x80  ;46  1000 0000
0730   3482           02529         RETLW 0x82  ;47  1000 0010
0731   3481           02530         RETLW 0x81  ;48  1000 0001
0732   3480           02531         RETLW 0x80  ;49  1000 0000
                      02532  
                      02533  ;znak »   offset = 50
0733   3478           02534         RETLW 0x78  ;50  0111 1000
0734   3485           02535         RETLW 0x85  ;51  1000 0101
0735   3486           02536         RETLW 0x86  ;52  1000 0110
0736   3485           02537         RETLW 0x85  ;53  1000 0101
0737   3448           02538         RETLW 0x48  ;54  0100 1000
                      02539  
                      02540  ;znak …   offset = 55
0738   34F8           02541         RETLW 0xF8  ;55  1111 1000
0739   34A8           02542         RETLW 0xA8  ;56  1010 1000
073A   34AA           02543         RETLW 0xAA  ;57  1010 1010
073B   3489           02544         RETLW 0x89  ;58  1000 1001
073C   3488           02545         RETLW 0x88  ;59  1000 1000
                      02546  
                      02547  ;znak Ã   offset = 60
073D   34F8           02548         RETLW 0xF8  ;60  1111 1000
073E   34A9           02549         RETLW 0xA9  ;61  1010 1001
073F   34AA           02550         RETLW 0xAA  ;62  1010 1010
0740   3489           02551         RETLW 0x89  ;63  1000 1001
0741   3488           02552         RETLW 0x88  ;64  1000 1000
                      02553  
                      02554  ;znak Õ   offset = 65
0742   3400           02555         RETLW 0x00  ;65  0000 0000
0743   3488           02556         RETLW 0x88  ;66  1000 1000
0744   34F8           02557         RETLW 0xF8  ;67  1111 1000
0745   348A           02558         RETLW 0x8A  ;68  1000 1010
0746   3401           02559         RETLW 0x01  ;69  0000 0001
                      02560  
                      02561  ;znak œ   offset = 70
0747   34FD           02562         RETLW 0xFD  ;70  1111 1101
0748   3486           02563         RETLW 0x86  ;71  1000 0110
0749   3485           02564         RETLW 0x85  ;72  1000 0101
074A   3448           02565         RETLW 0x48  ;73  0100 1000
074B   3430           02566         RETLW 0x30  ;74  0011 0000
                      02567  
                      02568  ;znak “   offset = 75
074C   34FD           02569         RETLW 0xFD  ;75  1111 1101
074D   340A           02570         RETLW 0x0A  ;76  0000 1010
074E   3411           02571         RETLW 0x11  ;77  0001 0001
074F   3420           02572         RETLW 0x20  ;78  0010 0000
0750   34FC           02573         RETLW 0xFC  ;79  1111 1100
                      02574  
                      02575  ;znak ”   offset = 80
0751   3478           02576         RETLW 0x78  ;80  0111 1000
0752   3484           02577         RETLW 0x84  ;81  1000 0100
0753   3486           02578         RETLW 0x86  ;82  1000 0110
MPASM  5.47                   16F628ATMPO.ASM   1-25-2013  19:54:22         PAGE 50


LOC  OBJECT CODE     LINE SOURCE TEXT
  VALUE

0754   3485           02579         RETLW 0x85  ;83  1000 0101
0755   3478           02580         RETLW 0x78  ;84  0111 1000
                      02581  
                      02582  ;znak ‘   offset = 85
0756   3478           02583         RETLW 0x78  ;85  0111 1000
0757   3486           02584         RETLW 0x86  ;86  1000 0110
0758   3485           02585         RETLW 0x85  ;87  1000 0101
0759   3486           02586         RETLW 0x86  ;88  1000 0110
075A   3478           02587         RETLW 0x78  ;89  0111 1000
                      02588  
                      02589  ;znak ÿ   offset = 90
075B   34FC           02590         RETLW 0xFC  ;90  1111 1100
075C   3415           02591         RETLW 0x15  ;91  0001 0101
075D   3436           02592         RETLW 0x36  ;92  0011 0110
075E   3455           02593         RETLW 0x55  ;93  0101 0101
075F   3488           02594         RETLW 0x88  ;94  1000 1000
                      02595  
                      02596  ;znak Ÿ   offset = 95
0760   347C           02597         RETLW 0x7C  ;95  0111 1100
0761   3482           02598         RETLW 0x82  ;96  1000 0010
0762   3485           02599         RETLW 0x85  ;97  1000 0101
0763   3482           02600         RETLW 0x82  ;98  1000 0010
0764   347C           02601         RETLW 0x7C  ;99  0111 1100
                      02602  
                      02603  ;znak ⁄   offset = 100
0765   347C           02604         RETLW 0x7C  ;100  0111 1100
0766   3480           02605         RETLW 0x80  ;101  1000 0000
0767   3482           02606         RETLW 0x82  ;102  1000 0010
0768   3481           02607         RETLW 0x81  ;103  1000 0001
0769   347C           02608         RETLW 0x7C  ;104  0111 1100
                      02609  
                      02610  ;znak ›   offset = 105
076A   340C           02611         RETLW 0x0C  ;105  0000 1100
076B   3410           02612         RETLW 0x10  ;106  0001 0000
076C   34E2           02613         RETLW 0xE2  ;107  1110 0010
076D   3411           02614         RETLW 0x11  ;108  0001 0001
076E   340C           02615         RETLW 0x0C  ;109  0000 1100
                      02616  
                      02617  ;znak ‡   offset = 110
076F   34F8           02618         RETLW 0xF8  ;110  1111 1000
0770   3410           02619         RETLW 0x10  ;111  0001 0000
0771   340A           02620         RETLW 0x0A  ;112  0000 1010
0772   3409           02621         RETLW 0x09  ;113  0000 1001
0773   3410           02622         RETLW 0x10  ;114  0001 0000
                      02623  
                      02624  ;znak ·   offset = 115
0774   3440           02625         RETLW 0x40  ;115  0100 0000
0775   34A8           02626         RETLW 0xA8  ;116  1010 1000
0776   34AA           02627         RETLW 0xAA  ;117  1010 1010
0777   34A9           02628         RETLW 0xA9  ;118  1010 1001
0778   34F0           02629         RETLW 0xF0  ;119  1111 0000
                      02630  
                      02631  ;znak ‰   offset = 120
MPASM  5.47                   16F628ATMPO.ASM   1-25-2013  19:54:22         PAGE 51


LOC  OBJECT CODE     LINE SOURCE TEXT
  VALUE

0779   3440           02632         RETLW 0x40  ;120  0100 0000
077A   34AA           02633         RETLW 0xAA  ;121  1010 1010
077B   34A8           02634         RETLW 0xA8  ;122  1010 1000
077C   34AA           02635         RETLW 0xAA  ;123  1010 1010
077D   34F0           02636         RETLW 0xF0  ;124  1111 0000
                      02637  
                      02638  ;znak Â   offset = 125
077E   3400           02639         RETLW 0x00  ;125  0000 0000
077F   3488           02640         RETLW 0x88  ;126  1000 1000
0780   34FA           02641         RETLW 0xFA  ;127  1111 1010
0781   3481           02642         RETLW 0x81  ;128  1000 0001
0782   3400           02643         RETLW 0x00  ;129  0000 0000
                      02644  
                      02645  ;znak Ë   offset = 130
0783   3470           02646         RETLW 0x70  ;130  0111 0000
0784   3489           02647         RETLW 0x89  ;131  1000 1001
0785   348A           02648         RETLW 0x8A  ;132  1000 1010
0786   3489           02649         RETLW 0x89  ;133  1000 1001
0787   3440           02650         RETLW 0x40  ;134  0100 0000
                      02651  
                      02652  ;znak È   offset = 135
0788   3470           02653         RETLW 0x70  ;135  0111 0000
0789   34A8           02654         RETLW 0xA8  ;136  1010 1000
078A   34AA           02655         RETLW 0xAA  ;137  1010 1010
078B   34A9           02656         RETLW 0xA9  ;138  1010 1001
078C   3430           02657         RETLW 0x30  ;139  0011 0000
                      02658  
                      02659  ;znak Ï   offset = 140
078D   3470           02660         RETLW 0x70  ;140  0111 0000
078E   34A9           02661         RETLW 0xA9  ;141  1010 1001
078F   34AA           02662         RETLW 0xAA  ;142  1010 1010
0790   34A9           02663         RETLW 0xA9  ;143  1010 1001
0791   3430           02664         RETLW 0x30  ;144  0011 0000
                      02665  
                      02666  ;znak Ì   offset = 145
0792   3400           02667         RETLW 0x00  ;145  0000 0000
0793   3490           02668         RETLW 0x90  ;146  1001 0000
0794   34F4           02669         RETLW 0xF4  ;147  1111 0100
0795   3482           02670         RETLW 0x82  ;148  1000 0010
0796   3400           02671         RETLW 0x00  ;149  0000 0000
                      02672  
                      02673  ;znak Ô   offset = 150
0797   3470           02674         RETLW 0x70  ;150  0111 0000
0798   3489           02675         RETLW 0x89  ;151  1000 1001
0799   348A           02676         RETLW 0x8A  ;152  1000 1010
079A   3491           02677         RETLW 0x91  ;153  1001 0001
079B   34FE           02678         RETLW 0xFE  ;154  1111 1110
                      02679  
                      02680  ;znak Ú   offset = 155
079C   34F8           02681         RETLW 0xF8  ;155  1111 1000
079D   3411           02682         RETLW 0x11  ;156  0001 0001
079E   340A           02683         RETLW 0x0A  ;157  0000 1010
079F   3409           02684         RETLW 0x09  ;158  0000 1001
MPASM  5.47                   16F628ATMPO.ASM   1-25-2013  19:54:22         PAGE 52


LOC  OBJECT CODE     LINE SOURCE TEXT
  VALUE

07A0   34F0           02685         RETLW 0xF0  ;159  1111 0000
                      02686  
                      02687  ;znak Û   offset = 160
07A1   3470           02688         RETLW 0x70  ;160  0111 0000
07A2   3488           02689         RETLW 0x88  ;161  1000 1000
07A3   348A           02690         RETLW 0x8A  ;162  1000 1010
07A4   3489           02691         RETLW 0x89  ;163  1000 1001
07A5   3470           02692         RETLW 0x70  ;164  0111 0000
                      02693  
                      02694  ;znak Ù   offset = 165
07A6   3470           02695         RETLW 0x70  ;165  0111 0000
07A7   348A           02696         RETLW 0x8A  ;166  1000 1010
07A8   3489           02697         RETLW 0x89  ;167  1000 1001
07A9   348A           02698         RETLW 0x8A  ;168  1000 1010
07AA   3470           02699         RETLW 0x70  ;169  0111 0000
                      02700  
                      02701  ;znak ˜   offset = 170
07AB   3410           02702         RETLW 0x10  ;170  0001 0000
07AC   3410           02703         RETLW 0x10  ;171  0001 0000
07AD   3454           02704         RETLW 0x54  ;172  0101 0100
07AE   3410           02705         RETLW 0x10  ;173  0001 0000
07AF   3410           02706         RETLW 0x10  ;174  0001 0000
                      02707  
                      02708  ;znak ¯   offset = 175
07B0   34F8           02709         RETLW 0xF8  ;175  1111 1000
07B1   3411           02710         RETLW 0x11  ;176  0001 0001
07B2   340A           02711         RETLW 0x0A  ;177  0000 1010
07B3   3409           02712         RETLW 0x09  ;178  0000 1001
07B4   3410           02713         RETLW 0x10  ;179  0001 0000
                      02714  
                      02715  ;znak ˘   offset = 180
07B5   3478           02716         RETLW 0x78  ;180  0111 1000
07B6   3482           02717         RETLW 0x82  ;181  1000 0010
07B7   3485           02718         RETLW 0x85  ;182  1000 0101
07B8   3442           02719         RETLW 0x42  ;183  0100 0010
07B9   34F8           02720         RETLW 0xF8  ;184  1111 1000
                      02721  
                      02722  ;znak ˙   offset = 185
07BA   3478           02723         RETLW 0x78  ;185  0111 1000
07BB   3480           02724         RETLW 0x80  ;186  1000 0000
07BC   3482           02725         RETLW 0x82  ;187  1000 0010
07BD   3441           02726         RETLW 0x41  ;188  0100 0001
07BE   34F8           02727         RETLW 0xF8  ;189  1111 1000
                      02728  
                      02729  ;znak ˝   offset = 190
07BF   3418           02730         RETLW 0x18  ;190  0001 1000
07C0   34A0           02731         RETLW 0xA0  ;191  1010 0000
07C1   34A2           02732         RETLW 0xA2  ;192  1010 0010
07C2   34A1           02733         RETLW 0xA1  ;193  1010 0001
07C3   3478           02734         RETLW 0x78  ;194  0111 1000
                      02735  
                      02736 
                      02737 ;znak koniec offset = 195 ;stary 175
MPASM  5.47                   16F628ATMPO.ASM   1-25-2013  19:54:22         PAGE 53


LOC  OBJECT CODE     LINE SOURCE TEXT
  VALUE

07C4   3400           02738                 RETLW 0x00      ;195 0000 0000
                      02739 
                      02740 
                      02741 
                      02742 
                      02743 
                      02744 ; initialize eeprom locations
                      02745 
                      02746 EE        CODE    0x2100
Warning[210]: Extra ","
2100   0032 000A      02747         DE    0x32, 0x0A, 
Warning[210]: Extra ","
2102   0041 0068 006F 02748                 DE        'A','h','o','j',0x0D, 
       006A 000D 
Warning[210]: Extra ","
2107   0053 0056 0045 02749                 DE        'S','V','E','T',0x0D, 
       0054 000D 
210C   003A 0029 00FF 02750                 DE        ':',')',0xFF,0xFF
       00FF 
2110   00FF 00FF      02751                 DE        0xFF, 0xFF
                      02752 
1E32                  02753         END                       ; directive 'end of program'
MPASM  5.47                   16F628ATMPO.ASM   1-25-2013  19:54:22         PAGE 54


SYMBOL TABLE
  LABEL                             VALUE 

ADEN                              00000003
BRGH                              00000002
C                                 00000000
C1INV                             00000004
C1OUT                             00000006
C2INV                             00000005
C2OUT                             00000007
CCP1CON                           00000017
CCP1IE                            00000002
CCP1IF                            00000002
CCP1M0                            00000000
CCP1M1                            00000001
CCP1M2                            00000002
CCP1M3                            00000003
CCP1X                             00000005
CCP1Y                             00000004
CCPR1H                            00000016
CCPR1L                            00000015
CIS                               00000003
CM0                               00000000
CM1                               00000001
CM2                               00000002
CMCON                             0000001F
CMIE                              00000006
CMIF                              00000006
CREN                              00000004
CSRC                              00000007
Cakaj_na_TMR0                     00000082
Cakaj_na_reset                    00000053
Cakam_na_povolenie                00000204
Cakam_na_povolenie2               00000217
Cakanie_TMR0                      0000007F
Cervena_farba                     0000022D
Citaj_z_buffera2                  000001F2
DALSI                             00000002
DATA_GO                           00000003
DC                                00000001
Delenie_8                         000002E7
EEADR                             0000009B
EECON1                            0000009C
EECON2                            0000009D
EEDATA                            0000009A
EEIE                              00000007
EEIF                              00000007
EE_WR_OK                          00000004
F                                 00000001
FARBA                             00000007
FERR                              00000002
FSR                               00000004
GIE                               00000007
INDF                              00000000
INIT                              00000002
INTCON                            0000000B
MPASM  5.47                   16F628ATMPO.ASM   1-25-2013  19:54:22         PAGE 55


SYMBOL TABLE
  LABEL                             VALUE 

INTE                              00000004
INTEDG                            00000006
INTERRUPT                         00000004
INTF                              00000001
IRP                               00000007
Inicializacia_ok                  000001B4
KAL_OK                            00000000
Koniec_chyba_0x01                 000002DA
Koniec_citania_z_buffera          00000200
Koniec_obsluhy_prijmu             000001B4
Koniec_rc                         00000306
Koniec_testu                      000003F4
Koniec_vyberu                     0000018B
Koniec_vykreslovania              00000282
Koniec_zapisu_do_buffera          000001D8
Kopirujem_data                    000001E0
MEDZERA                           00000005
MENU                              00000004
MERAM_KAL                         00000002
NAHODA                            00000001
NEVYKRESLUJ                       00000006
NOT_BO                            00000000
NOT_BOD                           00000000
NOT_BOR                           00000000
NOT_PD                            00000003
NOT_POR                           00000001
NOT_RBPU                          00000007
NOT_T1SYNC                        00000002
NOT_TO                            00000004
Nahraj_segment                    000000BB
Nekonecna_slucka                  00000043
OERR                              00000001
OFFSET_#                          0000000F
OFFSET_0                          00000050
OFFSET_1                          00000055
OFFSET_2                          0000005A
OFFSET_3                          0000005F
OFFSET_4                          00000064
OFFSET_5                          00000069
OFFSET_6                          0000006E
OFFSET_7                          00000073
OFFSET_8                          00000078
OFFSET_9                          0000007D
OFFSET_?                          0000009B
OFFSET_@                          000000A0
OFFSET_A                          000000A5
OFFSET_B                          000000AA
OFFSET_C                          000000AF
OFFSET_D                          000000B4
OFFSET_E                          000000B9
OFFSET_F                          000000BE
OFFSET_G                          000000C3
OFFSET_H                          000000C8
MPASM  5.47                   16F628ATMPO.ASM   1-25-2013  19:54:22         PAGE 56


SYMBOL TABLE
  LABEL                             VALUE 

OFFSET_I                          000000CD
OFFSET_J                          000000D2
OFFSET_K                          000000D7
OFFSET_L                          000000DC
OFFSET_M                          000000E1
OFFSET_N                          000000E6
OFFSET_O                          000000EB
OFFSET_P                          000000F0
OFFSET_Q                          000000F5
OFFSET_R                          000000FA
OFFSET_S                          00000000
OFFSET_T                          00000005
OFFSET_U                          0000000A
OFFSET_V                          0000000F
OFFSET_W                          00000014
OFFSET_X                          00000019
OFFSET_Y                          0000001E
OFFSET_Z                          00000023
OFFSET__                          0000003C
OFFSET_a                          00000046
OFFSET_and                        0000001E
OFFSET_apostrof                   00000023
OFFSET_b                          0000004B
OFFSET_bciarka                    00000087
OFFSET_bodka                      00000046
OFFSET_bodka2                     000000DC
OFFSET_c                          00000050
OFFSET_ciarka                     0000003C
OFFSET_ciarka2                    000000D7
OFFSET_d                          00000055
OFFSET_dapostrof                  000000E1
OFFSET_dolar                      00000014
OFFSET_dvoj_apostrof              0000000A
OFFSET_dvojbodka                  00000082
OFFSET_e                          0000005A
OFFSET_f                          0000005F
OFFSET_g                          00000064
OFFSET_h                          00000069
OFFSET_hviezda                    00000032
OFFSET_i                          0000006E
OFFSET_j                          00000073
OFFSET_k                          00000078
OFFSET_koniec                     000000FF
OFFSET_l                          0000007D
OFFSET_lhz                        00000028
OFFSET_llomitko                   0000002D
OFFSET_lz                         00000028
OFFSET_lzlz                       000000C8
OFFSET_m                          00000082
OFFSET_m_L                        00000014
OFFSET_m_S                        000000E6
OFFSET_m_T                        000000EB
OFFSET_m_Z                        000000F0
MPASM  5.47                   16F628ATMPO.ASM   1-25-2013  19:54:22         PAGE 57


SYMBOL TABLE
  LABEL                             VALUE 

OFFSET_m_l                        00000019
OFFSET_m_s                        000000F5
OFFSET_m_t                        000000FA
OFFSET_m_z                        00000000
OFFSET_makcen                     00000005
OFFSET_medzera                    000000FF
OFFSET_medzernik                  00000000
OFFSET_mensi                      0000008C
OFFSET_minus                      00000041
OFFSET_n                          00000087
OFFSET_o                          0000008C
OFFSET_opdl                       00000041
OFFSET_p                          00000091
OFFSET_paragraf                   0000000A
OFFSET_percento                   00000019
OFFSET_phz                        00000032
OFFSET_plomitko                   0000004B
OFFSET_plus                       00000037
OFFSET_pz                         0000002D
OFFSET_pzlz                       000000D2
OFFSET_q                          00000096
OFFSET_r                          0000009B
OFFSET_rovny                      00000091
OFFSET_s                          000000A0
OFFSET_stlp                       000000CD
OFFSET_striezka                   00000037
OFFSET_stupen                     0000000F
OFFSET_t                          000000A5
OFFSET_u                          000000AA
OFFSET_v                          000000AF
OFFSET_vacsi                      00000096
OFFSET_vykr                       00000005
OFFSET_w                          000000B4
OFFSET_x                          000000B9
OFFSET_y                          000000BE
OFFSET_z                          000000C3
OFFSET_¿                          0000001E
OFFSET_¡                          00000023
OFFSET_ƒ                          00000028
OFFSET_≈                          0000002D
OFFSET_»                          00000032
OFFSET_…                          00000037
OFFSET_Ã                          0000003C
OFFSET_Õ                          00000041
OFFSET_œ                          00000046
OFFSET_“                          0000004B
OFFSET_”                          00000050
OFFSET_‘                          00000055
OFFSET_ÿ                          0000005A
OFFSET_Ÿ                          0000005F
OFFSET_⁄                          00000064
OFFSET_›                          00000069
OFFSET_‡                          0000006E
MPASM  5.47                   16F628ATMPO.ASM   1-25-2013  19:54:22         PAGE 58


SYMBOL TABLE
  LABEL                             VALUE 

OFFSET_·                          00000073
OFFSET_‰                          00000078
OFFSET_Â                          0000007D
OFFSET_Ë                          00000082
OFFSET_È                          00000087
OFFSET_Ï                          0000008C
OFFSET_Ì                          00000091
OFFSET_Ô                          00000096
OFFSET_Ú                          0000009B
OFFSET_Û                          000000A0
OFFSET_Ù                          000000A5
OFFSET_˜                          000000AA
OFFSET_¯                          000000AF
OFFSET_˘                          000000B4
OFFSET_˙                          000000B9
OFFSET_˝                          000000BE
OPTION_REG                        00000081
OSCF                              00000003
Ofset_medzera                     000003F1
PCL                               00000002
PCLATH                            0000000A
PCON                              0000008E
PEIE                              00000006
PIE1                              0000008C
PIR1                              0000000C
PISMENO                           00000004
PIS_MEDZ                          00000002
POHYB                             00000000
PORTA                             00000005
PORTB                             00000006
PR2                               00000092
PS0                               00000000
PS1                               00000001
PS2                               00000002
PSA                               00000003
Pockaj_na_pustenie_tlacitka       00000084
Pohyb_mod_0                       00000169
Posun_dolava_xkrat                00000186
Posuvaj_mod                       0000003A
Precitaj_znak_z_EEPROM            0000028A
Prekopiruj_z_buffra_do_EEPROM     000001DC
Prerusenie_EEPROM                 00000307
Prerusenie_RB0                    000002AF
Prerusenie_TMR0                   0000030C
Prerusenie_TMR1                   0000030F
Preskoc_2tab                      000003EF
Preskoc_3tab                      000003E5
Preskoc_RB0_INT                   0000000D
Preskoc_chybu                     000002DB
Preskoc_inicializaciu_bajtu       000001A2
Preskoc_inicializaciu_menu        00000073
Preskoc_init_nahoda_mod           000000A3
Preskoc_iny_vyber                 000000DA
MPASM  5.47                   16F628ATMPO.ASM   1-25-2013  19:54:22         PAGE 59


SYMBOL TABLE
  LABEL                             VALUE 

Preskoc_kal_ok                    000002C1
Preskoc_kalibraciu                000002D1
Preskoc_medzeru                   000000E7
Preskoc_mod0_medzera              000000F4
Preskoc_mod_6_pre_medzeru         000000FC
Preskoc_mod_9                     00000192
Preskoc_nahodny_vyber_modu_end    00000199
Preskoc_nahodny_vyber_modu_init   000000DE
Preskoc_nahodu_pre_10             000000B2
Preskoc_napravu_1                 000000AD
Preskoc_napravu_2                 000000B2
Preskoc_pociatocne_nastavenie     0000003F
Preskoc_pohyb                     0000018B
Preskoc_prekopirovanie_buffra_do  00000054
Preskoc_prepnutie_smeru_4         00000175
Preskoc_prepnutie_smeru_C         0000017D
Preskoc_priratavanie              0000012F
Preskoc_priznak_medzera           00000141
Preskoc_prvykrat                  0000008A
Preskoc_random_farba              00000162
Preskoc_riesenie_0D_znaku         00000128
Preskoc_riesenie_FF_znaku         00000112
Preskoc_skok_na_dalsi_riadok_0D   00000121
Preskoc_skok_na_dalsi_riadok_FF   0000010B
Preskoc_spracovanie_rx_bajtu      0000005B
Preskoc_tlacitko                  00000099
Preskoc_ukoncenie_prijmu          000001AC
Preskoc_vyber_pismena             00000134
Preskoc_vykreslenie               000000BA
Preskoc_vypocet_kroku             00000306
Preskoc_zhasnutie_LED             00000063
Preskoc_zmenu_farby               0000014B
Preskoc_znak_13                   000003CF
Preskoc_znak_255                  000003CA
Prevod_ASCII_offset               000003C4
RA0_LED1                          00000000
RA1_LED2                          00000001
RA2_LED3                          00000002
RA3_LED4                          00000003
RA4_TLAC                          00000004
RA5_MCLR                          00000005
RA6_LED5                          00000006
RA7_OSC                           00000007
RAZ                               00000007
RB0_RX                            00000000
RB1_COLOR                         00000001
RB2_LED6                          00000002
RB3_LED7                          00000003
RB4_LED8                          00000004
RB5_LED9                          00000005
RB6_LED10                         00000006
RB7_LED11                         00000007
RBIE                              00000003
MPASM  5.47                   16F628ATMPO.ASM   1-25-2013  19:54:22         PAGE 60


SYMBOL TABLE
  LABEL                             VALUE 

RBIF                              00000000
RCIE                              00000005
RCIF                              00000005
RCREG                             0000001A
RCSTA                             00000018
RD                                00000000
RP0                               00000005
RP1                               00000006
RX9                               00000006
RX9D                              00000000
SPBRG                             00000099
SPEN                              00000007
SPRACUJ                           00000003
SREN                              00000005
START_KAL                         00000001
STATUS                            00000003
SYNC                              00000004
Spracuj_prijaty_bajt              0000019A
Start                             00000000
T0CS                              00000005
T0IE                              00000005
T0IF                              00000002
T0SE                              00000004
T1CKPS0                           00000004
T1CKPS1                           00000005
T1CON                             00000010
T1OSCEN                           00000003
T2CKPS0                           00000000
T2CKPS1                           00000001
T2CON                             00000012
TMR0                              00000001
TMR0_TICK                         00000000
TMR1CS                            00000001
TMR1H                             0000000F
TMR1IE                            00000000
TMR1IF                            00000000
TMR1L                             0000000E
TMR1ON                            00000000
TMR1_end                          00000322
TMR2                              00000011
TMR2IE                            00000001
TMR2IF                            00000001
TMR2ON                            00000002
TOUTPS0                           00000003
TOUTPS1                           00000004
TOUTPS2                           00000005
TOUTPS3                           00000006
TRISA                             00000085
TRISB                             00000086
TRMT                              00000001
TRVANIE_FRAME                     00000002
TRV_RIADKU                        00000032
TX9                               00000006
MPASM  5.47                   16F628ATMPO.ASM   1-25-2013  19:54:22         PAGE 61


SYMBOL TABLE
  LABEL                             VALUE 

TX9D                              00000000
TXEN                              00000005
TXIE                              00000004
TXIF                              00000004
TXREG                             00000019
TXSTA                             00000098
Tabulka1                          00000500
Tabulka2                          00000600
Tabulka3                          00000700
TabulkaText                       00000401
Ukonci_kopirovanie                00000214
VR0                               00000000
VR1                               00000001
VR2                               00000002
VR3                               00000003
VRCON                             0000009F
VREN                              00000007
VROE                              00000006
VRR                               00000005
VYMENA                            00000003
Vyber_z_tabulky1                  000004F3
Vyber_z_tabulky2                  000004E8
Vyber_z_tabulky3                  000003F6
Vyber_z_tabulky_segment           000004E1
Vykresli_LED                      0000021B
W                                 00000000
WR                                00000001
WREN                              00000002
WRERR                             00000003
WRITE_BUF                         00000005
Z                                 00000002
ZMENA_SMERU                       00000001
ZMEN_FARBU                        00000006
Zahod_bajt                        000001B4
Zamiesaj_mod                      0000009B
Zapis_do_buffera2                 000001C7
Zapis_do_buffra                   000001B5
Zapis_znak_do_EEPROM              00000293
Zelena_farba                      00000258
Zmen_na_cervenu                   0000014A
Zmen_na_zelenu_mod1               00000148
Zmen_smer_posuvu                  00000176
_BODEN_OFF                        00003FBF
_BODEN_ON                         00003FFF
_BOREN_OFF                        00003FBF
_BOREN_ON                         00003FFF
_CP_OFF                           00003FFF
_CP_ON                            00001FFF
_DATA_CP_OFF                      00003FFF
_DATA_CP_ON                       00003EFF
_ER_OSC_CLKOUT                    00003FFF
_ER_OSC_NOCLKOUT                  00003FFE
_EXTCLK_OSC                       00003FEF
MPASM  5.47                   16F628ATMPO.ASM   1-25-2013  19:54:22         PAGE 62


SYMBOL TABLE
  LABEL                             VALUE 

_HS_OSC                           00003FEE
_INTOSC_OSC_CLKOUT                00003FFD
_INTOSC_OSC_NOCLKOUT              00003FFC
_INTRC_OSC_CLKOUT                 00003FFD
_INTRC_OSC_NOCLKOUT               00003FFC
_LP_OSC                           00003FEC
_LVP_OFF                          00003F7F
_LVP_ON                           00003FFF
_MAIN_PROG_02A4                   000002A4
_MCLRE_OFF                        00003FDF
_MCLRE_ON                         00003FFF
_PWRTE_OFF                        00003FFF
_PWRTE_ON                         00003FF7
_RC_OSC_CLKOUT                    00003FFF
_RC_OSC_NOCLKOUT                  00003FFE
_WDT_OFF                          00003FFB
_WDT_ON                           00003FFF
_XT_OSC                           00003FED
__16F628A                         00000001
adress_offset                     00000032
buf_adr                           00000035
buf_data                          00000036
buffer1                           000000A0
buffer2                           00000120
cyklus                            00000037
cyklus_int                        00000027
eeadr_wr                          00000024
eedata_wr                         00000025
maly_krok                         00000028
mod_nah                           00000040
mod_nahoda                        0000003E
mody                              00000038
mody_vyber                        0000003C
mody_zal                          0000003A
offset                            00000033
pis_off                           00000042
pismeno                           00000041
pocet_prij                        00000034
pociatocne                        0000004F
pohyb_poz                         0000004A
pohyb_priz                        00000049
pohyb_stav                        0000004B
port_A                            0000004C
port_B                            0000004D
posun_bitov                       0000002F
prijaty_bajt                      0000002C
random                            0000004E
rc_bajt                           0000002D
rc_bajt2                          0000002E
rs232                             00000026
seg_posuv                         00000043
segment                           00000044
status_temp                       00000001
MPASM  5.47                   16F628ATMPO.ASM   1-25-2013  19:54:22         PAGE 63


SYMBOL TABLE
  LABEL                             VALUE 

stav                              00000020
tab_pom                           00000030
tabulka                           00000031
trv_medz                          00000045
trv_riad                          00000048
trvanie_r                         00000047
velky_krok                        0000002A
vykresli                          00000021
w_temp                            00000000
zalomenie                         00000046
znak                              00000023

Errors   :     0
Warnings :    17 reported,     0 suppressed
Messages :     0 reported,    24 suppressed

